

Microchip MPLAB XC8 Assembler V2.10 build 88905656 
                                                                                               Thu Jan 23 23:39:03 2020

Microchip MPLAB XC8 C Compiler v2.10 (Free license) build 20190730164152 Og1 
     1                           	processor	18F45K20
     2                           	fnconf	rparam,??,?,0
     3                           	opt	pw 120
     4                           	opt	flic
     5                           	psect	idataCOMRAM,global,class=CODE,delta=1,noexec
     6                           	psect	idataBANK0,global,class=CODE,delta=1,noexec
     7                           	psect	nvCOMRAM,global,class=COMRAM,space=1,delta=1,noexec
     8                           	psect	nvBANK0,global,class=BANK0,space=1,delta=1,lowdata,noexec
     9                           	psect	cinit,global,reloc=2,class=CODE,delta=1
    10                           	psect	bssCOMRAM,global,class=COMRAM,space=1,delta=1,noexec
    11                           	psect	dataCOMRAM,global,class=COMRAM,space=1,delta=1,noexec
    12                           	psect	bssBANK0,global,class=BANK0,space=1,delta=1,lowdata,noexec
    13                           	psect	dataBANK0,global,class=BANK0,space=1,delta=1,lowdata,noexec
    14                           	psect	cstackBANK0,global,class=BANK0,space=1,delta=1,noexec
    15                           	psect	cstackCOMRAM,global,class=COMRAM,space=1,delta=1,noexec
    16                           	psect	text0,global,reloc=2,class=CODE,delta=1
    17                           	psect	text1,global,reloc=2,class=CODE,delta=1
    18                           	psect	text2,global,reloc=2,class=CODE,delta=1
    19                           	psect	text3,global,reloc=2,class=CODE,delta=1
    20                           	psect	text4,global,reloc=2,class=CODE,delta=1,group=1
    21                           	psect	text5,global,reloc=2,class=CODE,delta=1,group=1
    22                           	psect	text6,global,reloc=2,class=CODE,delta=1,group=1
    23                           	psect	text7,global,reloc=2,class=CODE,delta=1,group=1
    24                           	psect	text8,global,reloc=2,class=CODE,delta=1
    25                           	psect	text9,global,reloc=2,class=CODE,delta=1
    26                           	psect	text10,global,reloc=2,class=CODE,delta=1
    27                           	psect	text11,global,reloc=2,class=CODE,delta=1
    28                           	psect	text12,global,reloc=2,class=CODE,delta=1
    29                           	psect	text13,global,reloc=2,class=CODE,delta=1
    30                           	psect	text14,global,reloc=2,class=CODE,delta=1
    31                           	psect	text15,global,reloc=2,class=CODE,delta=1
    32                           	psect	text16,global,reloc=2,class=CODE,delta=1
    33                           	psect	text17,global,reloc=2,class=CODE,delta=1
    34                           	psect	text18,global,reloc=2,class=CODE,delta=1
    35                           	psect	text19,global,reloc=2,class=CODE,delta=1,group=1
    36                           	psect	text20,global,reloc=2,class=CODE,delta=1
    37                           	psect	text21,global,reloc=2,class=CODE,delta=1
    38                           	psect	text22,global,reloc=2,class=CODE,delta=1
    39                           	psect	text23,global,reloc=2,class=CODE,delta=1
    40                           	psect	text24,global,reloc=2,class=CODE,delta=1
    41                           	psect	text25,global,reloc=2,class=CODE,delta=1
    42                           	psect	text26,global,reloc=2,class=CODE,delta=1
    43                           	psect	text27,global,reloc=2,class=CODE,delta=1
    44                           	psect	text28,global,reloc=2,class=CODE,delta=1
    45                           	psect	text29,global,reloc=2,class=CODE,delta=1
    46                           	psect	intcode,global,reloc=2,class=CODE,delta=1
    47                           	psect	text31,global,reloc=2,class=CODE,delta=1
    48                           	psect	text32,global,reloc=2,class=CODE,delta=1
    49                           	psect	text33,global,reloc=2,class=CODE,delta=1
    50                           	psect	text34,global,reloc=2,class=CODE,delta=1
    51                           	psect	text35,global,reloc=2,class=CODE,delta=1
    52                           	psect	text36,global,reloc=2,class=CODE,delta=1
    53                           	psect	text37,global,reloc=2,class=CODE,delta=1
    54                           	psect	text38,global,reloc=2,class=CODE,delta=1
    55                           	psect	text39,global,reloc=2,class=CODE,delta=1
    56                           	psect	text40,global,reloc=2,class=CODE,delta=1
    57                           	psect	text41,global,reloc=2,class=CODE,delta=1
    58                           	psect	text42,global,reloc=2,class=CODE,delta=1
    59                           	psect	text43,global,reloc=2,class=CODE,delta=1,group=1
    60                           	psect	text44,global,reloc=2,class=CODE,delta=1,group=1
    61                           	psect	intsave_regs,global,class=BIGRAM,space=1,delta=1,noexec
    62                           	psect	text45,global,reloc=2,class=CODE,delta=1,group=1
    63                           	psect	rparam,global,class=COMRAM,space=1,delta=1,noexec
    64                           	psect	temp,global,ovrld,common,class=COMRAM,space=1,delta=1
    65  0000                     
    66                           ; Version 2.10
    67                           ; Generated 31/07/2019 GMT
    68                           ; 
    69                           ; Copyright © 2019, Microchip Technology Inc. and its subsidiaries ("Microchip")
    70                           ; All rights reserved.
    71                           ; 
    72                           ; This software is developed by Microchip Technology Inc. and its subsidiaries ("Microch
      +                          ip").
    73                           ; 
    74                           ; Redistribution and use in source and binary forms, with or without modification, are
    75                           ; permitted provided that the following conditions are met:
    76                           ; 
    77                           ;     1. Redistributions of source code must retain the above copyright notice, this lis
      +                          t of
    78                           ;        conditions and the following disclaimer.
    79                           ; 
    80                           ;     2. Redistributions in binary form must reproduce the above copyright notice, this 
      +                          list
    81                           ;        of conditions and the following disclaimer in the documentation and/or other
    82                           ;        materials provided with the distribution.
    83                           ; 
    84                           ;     3. Microchip's name may not be used to endorse or promote products derived from th
      +                          is
    85                           ;        software without specific prior written permission.
    86                           ; 
    87                           ; THIS SOFTWARE IS PROVIDED BY MICROCHIP "AS IS" AND ANY EXPRESS OR IMPLIED WARRANTIES,
    88                           ; INCLUDING, BUT NOT LIMITED TO, THE IMPLIED WARRANTIES OF MERCHANTABILITY AND FITNESS F
      +                          OR
    89                           ; PURPOSE ARE DISCLAIMED.  IN NO EVENT SHALL MICROCHIP BE LIABLE FOR ANY DIRECT, INDIREC
      +                          T,
    90                           ; INCIDENTAL, SPECIAL, EXEMPLARY, OR CONSEQUENTIAL DAMAGES (INCLUDING BUT NOT LIMITED TO
    91                           ; PROCUREMENT OF SUBSTITUTE GOODS OR SERVICES; LOSS OF USE, DATA OR PROFITS; OR BUSINESS
    92                           ; INTERRUPTION) HOWSOEVER CAUSED AND ON ANY THEORY OF LIABILITY, WHETHER IN CONTRACT, ST
      +                          RICT
    93                           ; LIABILITY, OR TORT (INCLUDING NEGLIGENCE OR OTHERWISE) ARISING IN ANY WAY OUT OF THE U
      +                          SE OF
    94                           ; THIS SOFTWARE, EVEN IF ADVISED OF THE POSSIBILITY OF SUCH DAMAGE.
    95                           ; 
    96                           ; 
    97                           ; Code-generator required, PIC18F45K20 Definitions
    98                           ; 
    99                           ; SFR Addresses
   100  0000                     
   101                           	psect	idataCOMRAM
   102  001A88                     __pidataCOMRAM:
   103                           	opt callstack 0
   104                           
   105                           ;initializer for printTemperature@digit
   106  001A88  0001               	dw	1
   107                           
   108                           ;initializer for _DisplayOn
   109  001A8A  0001               	dw	1
   110                           
   111                           	psect	idataBANK0
   112  001A9C                     __pidataBANK0:
   113                           	opt callstack 0
   114                           
   115                           ;initializer for _previousC1State
   116  001A9C  0001               	dw	1
   117                           
   118                           	psect	nvCOMRAM
   119  000046                     __pnvCOMRAM:
   120                           	opt callstack 0
   121  000046                     _timer3ReloadVal:
   122                           	opt callstack 0
   123  000046                     	ds	2
   124  000048                     _temperature:
   125                           	opt callstack 0
   126  000048                     	ds	2
   127                           
   128                           	psect	nvBANK0
   129  0000A3                     __pnvBANK0:
   130                           	opt callstack 0
   131  0000A3                     _TMR3_InterruptHandler:
   132                           	opt callstack 0
   133  0000A3                     	ds	2
   134  0000A5                     _TMR2_InterruptHandler:
   135                           	opt callstack 0
   136  0000A5                     	ds	2
   137  0000A7                     _internal_temp:
   138                           	opt callstack 0
   139  0000A7                     	ds	2
   140  0000A9                     _soil_temp:
   141                           	opt callstack 0
   142  0000A9                     	ds	2
   143  0000AB                     _plate_temp:
   144                           	opt callstack 0
   145  0000AB                     	ds	2
   146  0000AD                     _ambient_temp:
   147                           	opt callstack 0
   148  0000AD                     	ds	2
   149  0000                     _TMR3	set	4018
   150  0000                     _PORTD	set	3971
   151  0000                     _T3CONbits	set	4017
   152  0000                     _T3CON	set	4017
   153  0000                     _TMR3L	set	4018
   154  0000                     _TMR3H	set	4019
   155  0000                     _PIE2bits	set	4000
   156  0000                     _RCONbits	set	4048
   157  0000                     _T2CONbits	set	4042
   158  0000                     _T2CON	set	4042
   159  0000                     _PIE1bits	set	3997
   160  0000                     _PIR1bits	set	3998
   161  0000                     _TMR2	set	4044
   162  0000                     _PR2	set	4043
   163  0000                     _PIR2bits	set	4001
   164  0000                     _EEDATA	set	4008
   165  0000                     _EEADR	set	4009
   166  0000                     _EECON2	set	4007
   167  0000                     _EECON1bits	set	4006
   168  0000                     _TABLAT	set	4085
   169  0000                     _TBLPTRL	set	4086
   170  0000                     _TBLPTRH	set	4087
   171  0000                     _TBLPTRU	set	4088
   172  0000                     _ADCON0bits	set	4034
   173  0000                     _ADRESH	set	4036
   174  0000                     _ADRESL	set	4035
   175  0000                     _ADCON2	set	4032
   176  0000                     _ADCON1	set	4033
   177  0000                     _ADCON0	set	4034
   178  0000                     _INTCONbits	set	4082
   179  0000                     _INTCON2bits	set	4081
   180  0000                     _WPUB	set	3964
   181  0000                     _ANSELH	set	3967
   182  0000                     _ANSEL	set	3966
   183  0000                     _TRISD	set	3989
   184  0000                     _TRISC	set	3988
   185  0000                     _TRISB	set	3987
   186  0000                     _TRISA	set	3986
   187  0000                     _TRISE	set	3990
   188  0000                     _LATC	set	3979
   189  0000                     _LATB	set	3978
   190  0000                     _LATA	set	3977
   191  0000                     _LATD	set	3980
   192  0000                     _LATE	set	3981
   193  0000                     _OSCTUNE	set	3995
   194  0000                     _OSCCON	set	4051
   195                           
   196                           ; #config settings
   197  0000                     
   198                           	psect	cinit
   199  001730                     __pcinit:
   200                           	opt callstack 0
   201  001730                     start_initialization:
   202                           	opt callstack 0
   203  001730                     __initialization:
   204                           	opt callstack 0
   205                           
   206                           ; Initialize objects allocated to BANK0 (2 bytes)
   207                           ; load TBLPTR registers with __pidataBANK0
   208  001730  0E9C               	movlw	low __pidataBANK0
   209  001732  6EF6               	movwf	tblptrl,c
   210  001734  0E1A               	movlw	high __pidataBANK0
   211  001736  6EF7               	movwf	tblptrh,c
   212  001738  0E00               	movlw	low (__pidataBANK0 shr (0+16))
   213  00173A  6EF8               	movwf	tblptru,c
   214  00173C  0009               	tblrd		*+	;fetch initializer
   215  00173E  CFF5 F0AF          	movff	tablat,__pdataBANK0
   216  001742  0009               	tblrd		*+	;fetch initializer
   217  001744  CFF5 F0B0          	movff	tablat,__pdataBANK0+1
   218                           
   219                           ; Initialize objects allocated to COMRAM (4 bytes)
   220                           ; load TBLPTR registers with __pidataCOMRAM
   221  001748  0E88               	movlw	low __pidataCOMRAM
   222  00174A  6EF6               	movwf	tblptrl,c
   223  00174C  0E1A               	movlw	high __pidataCOMRAM
   224  00174E  6EF7               	movwf	tblptrh,c
   225  001750  0E00               	movlw	low (__pidataCOMRAM shr (0+16))
   226  001752  6EF8               	movwf	tblptru,c
   227  001754  EE00  F04A         	lfsr	0,__pdataCOMRAM
   228  001758  EE10 F004          	lfsr	1,4
   229  00175C                     copy_data0:
   230  00175C  0009               	tblrd		*+
   231  00175E  CFF5 FFEE          	movff	tablat,postinc0
   232  001762  50E5               	movf	postdec1,w,c
   233  001764  50E1               	movf	fsr1l,w,c
   234  001766  E1FA               	bnz	copy_data0
   235                           
   236                           ; Clear objects allocated to BANK0 (20 bytes)
   237  001768  EE00  F08F         	lfsr	0,__pbssBANK0
   238  00176C  0E14               	movlw	20
   239  00176E                     clear_0:
   240  00176E  6AEE               	clrf	postinc0,c
   241  001770  06E8               	decf	wreg,f,c
   242  001772  E1FD               	bnz	clear_0
   243                           
   244                           ; Clear objects allocated to COMRAM (8 bytes)
   245  001774  EE00  F03E         	lfsr	0,__pbssCOMRAM
   246  001778  0E08               	movlw	8
   247  00177A                     clear_1:
   248  00177A  6AEE               	clrf	postinc0,c
   249  00177C  06E8               	decf	wreg,f,c
   250  00177E  E1FD               	bnz	clear_1
   251  001780                     end_of_initialization:
   252                           	opt callstack 0
   253  001780                     __end_of__initialization:
   254                           	opt callstack 0
   255  001780  904E               	bcf	int$flags,0,c	;clear compiler interrupt flag (level 1)
   256  001782  924E               	bcf	int$flags,1,c	;clear compiler interrupt flag (level 2)
   257  001784  0E00               	movlw	low (__Lmediumconst shr (0+16))
   258  001786  6EF8               	movwf	tblptru,c
   259  001788  0100               	movlb	0
   260  00178A  EF59  F007         	goto	_main	;jump to C main() function
   261                           
   262                           	psect	bssCOMRAM
   263  00003E                     __pbssCOMRAM:
   264                           	opt callstack 0
   265  00003E                     TMR3_DefaultInterruptHandler@switchPreviousStableState:
   266                           	opt callstack 0
   267  00003E                     	ds	2
   268  000040                     TMR3_DefaultInterruptHandler@SwitchCount:
   269                           	opt callstack 0
   270  000040                     	ds	2
   271  000042                     _EncoderState:
   272                           	opt callstack 0
   273  000042                     	ds	2
   274  000044                     _SwitchState:
   275                           	opt callstack 0
   276  000044                     	ds	2
   277                           
   278                           	psect	dataCOMRAM
   279  00004A                     __pdataCOMRAM:
   280                           	opt callstack 0
   281  00004A                     printTemperature@digit:
   282                           	opt callstack 0
   283  00004A                     	ds	2
   284  00004C                     _DisplayOn:
   285                           	opt callstack 0
   286  00004C                     	ds	2
   287                           
   288                           	psect	bssBANK0
   289  00008F                     __pbssBANK0:
   290                           	opt callstack 0
   291  00008F                     	ds	2
   292  000091                     	ds	2
   293  000093                     	ds	2
   294  000095                     	ds	2
   295  000097                     _previousA1State:
   296                           	opt callstack 0
   297  000097                     	ds	2
   298  000099                     _previousSwitchState:
   299                           	opt callstack 0
   300  000099                     	ds	2
   301  00009B                     _max_internal_temp:
   302                           	opt callstack 0
   303  00009B                     	ds	2
   304  00009D                     _max_plate_temp:
   305                           	opt callstack 0
   306  00009D                     	ds	2
   307  00009F                     _min_soil_temp:
   308                           	opt callstack 0
   309  00009F                     	ds	2
   310  0000A1                     _max_soil_temp:
   311                           	opt callstack 0
   312  0000A1                     	ds	2
   313                           
   314                           	psect	dataBANK0
   315  0000AF                     __pdataBANK0:
   316                           	opt callstack 0
   317  0000AF                     _previousC1State:
   318                           	opt callstack 0
   319  0000AF                     	ds	2
   320                           
   321                           	psect	cstackBANK0
   322  000060                     __pcstackBANK0:
   323                           	opt callstack 0
   324  000060                     ?___fldiv:
   325                           	opt callstack 0
   326  000060                     ___fldiv@b:
   327                           	opt callstack 0
   328                           
   329                           ; 4 bytes @ 0x0
   330  000060                     	ds	4
   331  000064                     ___fldiv@a:
   332                           	opt callstack 0
   333                           
   334                           ; 4 bytes @ 0x4
   335  000064                     	ds	4
   336  000068                     ___fldiv@rem:
   337                           	opt callstack 0
   338                           
   339                           ; 4 bytes @ 0x8
   340  000068                     	ds	4
   341  00006C                     ___fldiv@sign:
   342                           	opt callstack 0
   343                           
   344                           ; 1 bytes @ 0xC
   345  00006C                     	ds	1
   346  00006D                     ___fldiv@new_exp:
   347                           	opt callstack 0
   348                           
   349                           ; 2 bytes @ 0xD
   350  00006D                     	ds	2
   351  00006F                     ___fldiv@grs:
   352                           	opt callstack 0
   353                           
   354                           ; 4 bytes @ 0xF
   355  00006F                     	ds	4
   356  000073                     ___fldiv@bexp:
   357                           	opt callstack 0
   358                           
   359                           ; 1 bytes @ 0x13
   360  000073                     	ds	1
   361  000074                     ___fldiv@aexp:
   362                           	opt callstack 0
   363                           
   364                           ; 1 bytes @ 0x14
   365  000074                     	ds	1
   366  000075                     ?_readTemperatureSensor:
   367                           	opt callstack 0
   368  000075                     readTemperatureSensor@channel:
   369                           	opt callstack 0
   370                           
   371                           ; 2 bytes @ 0x15
   372  000075                     	ds	4
   373  000079                     readTemperatureSensor@Vout:
   374                           	opt callstack 0
   375                           
   376                           ; 4 bytes @ 0x19
   377  000079                     	ds	4
   378  00007D                     _readTemperatureSensor$1820:
   379                           	opt callstack 0
   380                           
   381                           ; 4 bytes @ 0x1D
   382  00007D                     	ds	4
   383  000081                     readTemperatureSensor@ADCvalue:
   384                           	opt callstack 0
   385                           
   386                           ; 2 bytes @ 0x21
   387  000081                     	ds	2
   388  000083                     readTemperatureSensor@temp:
   389                           	opt callstack 0
   390                           
   391                           ; 4 bytes @ 0x23
   392  000083                     	ds	4
   393  000087                     ?___fltol:
   394                           	opt callstack 0
   395  000087                     ___fltol@f1:
   396                           	opt callstack 0
   397                           
   398                           ; 4 bytes @ 0x27
   399  000087                     	ds	4
   400  00008B                     ??___fltol:
   401                           
   402                           ; 1 bytes @ 0x2B
   403  00008B                     	ds	4
   404                           
   405                           	psect	cstackCOMRAM
   406  000001                     __pcstackCOMRAM:
   407                           	opt callstack 0
   408  000001                     ?___awdiv:
   409                           	opt callstack 0
   410  000001                     ?___awmod:
   411                           	opt callstack 0
   412  000001                     setSwitchState@s:
   413                           	opt callstack 0
   414  000001                     TMR3_WriteTimer@timerVal:
   415                           	opt callstack 0
   416  000001                     ___awdiv@dividend:
   417                           	opt callstack 0
   418  000001                     ___awmod@dividend:
   419                           	opt callstack 0
   420                           
   421                           ; 2 bytes @ 0x0
   422  000001                     	ds	2
   423  000003                     ??_TMR3_DefaultInterruptHandler:
   424  000003                     ___awdiv@divisor:
   425                           	opt callstack 0
   426  000003                     ___awmod@divisor:
   427                           	opt callstack 0
   428                           
   429                           ; 2 bytes @ 0x2
   430  000003                     	ds	2
   431  000005                     ___awdiv@counter:
   432                           	opt callstack 0
   433  000005                     ___awmod@counter:
   434                           	opt callstack 0
   435                           
   436                           ; 1 bytes @ 0x4
   437  000005                     	ds	1
   438  000006                     ___awdiv@sign:
   439                           	opt callstack 0
   440  000006                     ___awmod@sign:
   441                           	opt callstack 0
   442                           
   443                           ; 1 bytes @ 0x5
   444  000006                     	ds	1
   445  000007                     ___awdiv@quotient:
   446                           	opt callstack 0
   447                           
   448                           ; 2 bytes @ 0x6
   449  000007                     	ds	2
   450  000009                     printCharacter@n:
   451                           	opt callstack 0
   452                           
   453                           ; 2 bytes @ 0x8
   454  000009                     	ds	2
   455  00000B                     ??_printCharacter:
   456                           
   457                           ; 1 bytes @ 0xA
   458  00000B                     	ds	2
   459  00000D                     printTemperature@t:
   460                           	opt callstack 0
   461                           
   462                           ; 2 bytes @ 0xC
   463  00000D                     	ds	2
   464  00000F                     ??_INTERRUPT_InterruptManager:
   465                           
   466                           ; 1 bytes @ 0xE
   467  00000F                     	ds	2
   468  000011                     ??_ADC_SelectChannel:
   469  000011                     ?_ADC_GetConversionResult:
   470                           	opt callstack 0
   471  000011                     ?___fladd:
   472                           	opt callstack 0
   473  000011                     ?___xxtofl:
   474                           	opt callstack 0
   475  000011                     DATAEE_ReadByte@bAdd:
   476                           	opt callstack 0
   477  000011                     setStateLEDs@currentSensor:
   478                           	opt callstack 0
   479  000011                     TMR2_SetInterruptHandler@InterruptHandler:
   480                           	opt callstack 0
   481  000011                     setDisplayTemperature@temp:
   482                           	opt callstack 0
   483  000011                     TMR3_SetInterruptHandler@InterruptHandler:
   484                           	opt callstack 0
   485  000011                     ___fladd@b:
   486                           	opt callstack 0
   487  000011                     ___xxtofl@val:
   488                           	opt callstack 0
   489                           
   490                           ; 4 bytes @ 0x10
   491  000011                     	ds	1
   492  000012                     ??_setStateLEDs:
   493  000012                     ADC_SelectChannel@channel:
   494                           	opt callstack 0
   495  000012                     readSoilMax@temp:
   496                           	opt callstack 0
   497  000012                     readSoilMin@temp:
   498                           	opt callstack 0
   499  000012                     readPlateMax@temp:
   500                           	opt callstack 0
   501  000012                     readInternalMax@temp:
   502                           	opt callstack 0
   503                           
   504                           ; 2 bytes @ 0x11
   505  000012                     	ds	1
   506  000013                     ??_ADC_GetConversionResult:
   507                           
   508                           ; 1 bytes @ 0x12
   509  000013                     	ds	1
   510  000014                     ??_readSoilMax:
   511  000014                     ??_readSoilMin:
   512  000014                     ??_readPlateMax:
   513  000014                     ??_readInternalMax:
   514  000014                     setStateLEDs@rState:
   515                           	opt callstack 0
   516                           
   517                           ; 1 bytes @ 0x13
   518  000014                     	ds	1
   519  000015                     ??___xxtofl:
   520  000015                     ?_ADCRead:
   521                           	opt callstack 0
   522  000015                     ___fladd@a:
   523                           	opt callstack 0
   524                           
   525                           ; 4 bytes @ 0x14
   526  000015                     	ds	2
   527  000017                     
   528                           ; 1 bytes @ 0x16
   529  000017                     	ds	1
   530  000018                     readSoilMax@t:
   531                           	opt callstack 0
   532  000018                     readSoilMin@t:
   533                           	opt callstack 0
   534  000018                     readPlateMax@t:
   535                           	opt callstack 0
   536  000018                     readInternalMax@t:
   537                           	opt callstack 0
   538                           
   539                           ; 2 bytes @ 0x17
   540  000018                     	ds	1
   541  000019                     ??___fladd:
   542  000019                     ___xxtofl@sign:
   543                           	opt callstack 0
   544                           
   545                           ; 1 bytes @ 0x18
   546  000019                     	ds	1
   547  00001A                     ___xxtofl@exp:
   548                           	opt callstack 0
   549                           
   550                           ; 1 bytes @ 0x19
   551  00001A                     	ds	1
   552  00001B                     ___xxtofl@arg:
   553                           	opt callstack 0
   554                           
   555                           ; 4 bytes @ 0x1A
   556  00001B                     	ds	2
   557  00001D                     ___fladd@signs:
   558                           	opt callstack 0
   559                           
   560                           ; 1 bytes @ 0x1C
   561  00001D                     	ds	1
   562  00001E                     ___fladd@aexp:
   563                           	opt callstack 0
   564                           
   565                           ; 1 bytes @ 0x1D
   566  00001E                     	ds	1
   567  00001F                     ?___flmul:
   568                           	opt callstack 0
   569  00001F                     ___fladd@bexp:
   570                           	opt callstack 0
   571  00001F                     ___flmul@b:
   572                           	opt callstack 0
   573                           
   574                           ; 4 bytes @ 0x1E
   575  00001F                     	ds	1
   576  000020                     ___fladd@grs:
   577                           	opt callstack 0
   578                           
   579                           ; 1 bytes @ 0x1F
   580  000020                     	ds	3
   581  000023                     ___flmul@a:
   582                           	opt callstack 0
   583                           
   584                           ; 4 bytes @ 0x22
   585  000023                     	ds	4
   586  000027                     ??___flmul:
   587                           
   588                           ; 1 bytes @ 0x26
   589  000027                     	ds	4
   590  00002B                     ___flmul@sign:
   591                           	opt callstack 0
   592                           
   593                           ; 1 bytes @ 0x2A
   594  00002B                     	ds	1
   595  00002C                     ___flmul@grs:
   596                           	opt callstack 0
   597                           
   598                           ; 4 bytes @ 0x2B
   599  00002C                     	ds	4
   600  000030                     ___flmul@aexp:
   601                           	opt callstack 0
   602                           
   603                           ; 1 bytes @ 0x2F
   604  000030                     	ds	1
   605  000031                     ___flmul@bexp:
   606                           	opt callstack 0
   607                           
   608                           ; 1 bytes @ 0x30
   609  000031                     	ds	1
   610  000032                     ___flmul@prod:
   611                           	opt callstack 0
   612                           
   613                           ; 4 bytes @ 0x31
   614  000032                     	ds	4
   615  000036                     ___flmul@temp:
   616                           	opt callstack 0
   617                           
   618                           ; 2 bytes @ 0x35
   619  000036                     	ds	2
   620  000038                     ??___fldiv:
   621                           
   622                           ; 1 bytes @ 0x37
   623  000038                     	ds	4
   624  00003C                     ___fltol@sign1:
   625                           	opt callstack 0
   626                           
   627                           ; 1 bytes @ 0x3B
   628  00003C                     	ds	1
   629  00003D                     ___fltol@exp1:
   630                           	opt callstack 0
   631                           
   632                           ; 1 bytes @ 0x3C
   633  00003D                     	ds	1
   634  00003E                     
   635                           ; 1 bytes @ 0x3D
   636 ;;
   637 ;;Main: autosize = 0, tempsize = 0, incstack = 0, save=0
   638 ;;
   639 ;; *************** function _main *****************
   640 ;; Defined at:
   641 ;;		line 65 in file "main.c"
   642 ;; Parameters:    Size  Location     Type
   643 ;;		None
   644 ;; Auto vars:     Size  Location     Type
   645 ;;  currentSenso    1    0        enum E2784
   646 ;;  currentSenso    1    0        enum E2778
   647 ;; Return value:  Size  Location     Type
   648 ;;                  1    wreg      void 
   649 ;; Registers used:
   650 ;;		wreg, fsr2l, fsr2h, status,2, status,0, prodl, prodh, cstack
   651 ;; Tracked objects:
   652 ;;		On entry : 0/0
   653 ;;		On exit  : 0/0
   654 ;;		Unchanged: 0/0
   655 ;; Data sizes:     COMRAM   BANK0   BANK1   BANK2   BANK3   BANK4   BANK5
   656 ;;      Params:         0       0       0       0       0       0       0
   657 ;;      Locals:         0       2       0       0       0       0       0
   658 ;;      Temps:          0       0       0       0       0       0       0
   659 ;;      Totals:         0       2       0       0       0       0       0
   660 ;;Total ram usage:        2 bytes
   661 ;; Hardware stack levels required when called:    9
   662 ;; This function calls:
   663 ;;		_SYSTEM_Initialize
   664 ;;		_TMR2_StartTimer
   665 ;;		___fltol
   666 ;;		_openDisplay
   667 ;;		_readInternalMax
   668 ;;		_readPlateMax
   669 ;;		_readSoilMax
   670 ;;		_readSoilMin
   671 ;;		_readTemperatureSensor
   672 ;;		_setDisplayTemperature
   673 ;;		_setStateLEDs
   674 ;; This function is called by:
   675 ;;		Startup code after reset
   676 ;; This function uses a non-reentrant model
   677 ;;
   678                           
   679                           	psect	text0
   680  000EB2                     __ptext0:
   681                           	opt callstack 0
   682  000EB2                     _main:
   683                           	opt callstack 22
   684  000EB2                     
   685                           ;main.c: 69:     SYSTEM_Initialize();
   686  000EB2  ECD3  F00C         	call	_SYSTEM_Initialize	;wreg free
   687  000EB6                     
   688                           ;main.c: 87:     readSoilMax(&max_soil_temp);
   689  000EB6  0EA1               	movlw	low _max_soil_temp
   690  000EB8  6E12               	movwf	readSoilMax@temp^0,c
   691  000EBA  0E00               	movlw	high _max_soil_temp
   692  000EBC  6E13               	movwf	(readSoilMax@temp+1)^0,c
   693  000EBE  ECFC  F00B         	call	_readSoilMax	;wreg free
   694  000EC2                     
   695                           ;main.c: 88:     readSoilMin(&min_soil_temp);
   696  000EC2  0E9F               	movlw	low _min_soil_temp
   697  000EC4  6E12               	movwf	readSoilMin@temp^0,c
   698  000EC6  0E00               	movlw	high _min_soil_temp
   699  000EC8  6E13               	movwf	(readSoilMin@temp+1)^0,c
   700  000ECA  ECE2  F00B         	call	_readSoilMin	;wreg free
   701  000ECE                     
   702                           ;main.c: 89:     readPlateMax(&max_plate_temp);
   703  000ECE  0E9D               	movlw	low _max_plate_temp
   704  000ED0  6E12               	movwf	readPlateMax@temp^0,c
   705  000ED2  0E00               	movlw	high _max_plate_temp
   706  000ED4  6E13               	movwf	(readPlateMax@temp+1)^0,c
   707  000ED6  EC16  F00C         	call	_readPlateMax	;wreg free
   708  000EDA                     
   709                           ;main.c: 90:     readInternalMax(&max_internal_temp);
   710  000EDA  0E9B               	movlw	low _max_internal_temp
   711  000EDC  6E12               	movwf	readInternalMax@temp^0,c
   712  000EDE  0E00               	movlw	high _max_internal_temp
   713  000EE0  6E13               	movwf	(readInternalMax@temp+1)^0,c
   714  000EE2  EC30  F00C         	call	_readInternalMax	;wreg free
   715  000EE6                     
   716                           ;main.c: 92:     ambient_temp = readTemperatureSensor(000);
   717  000EE6  0E00               	movlw	0
   718  000EE8  0100               	movlb	0	; () banked
   719  000EEA  6F76               	movwf	(readTemperatureSensor@channel+1)& (0+255),b
   720  000EEC  0E00               	movlw	0
   721  000EEE  6F75               	movwf	readTemperatureSensor@channel& (0+255),b
   722  000EF0  EC2E  F008         	call	_readTemperatureSensor	;wreg free
   723  000EF4  C075  F087         	movff	?_readTemperatureSensor,___fltol@f1
   724  000EF8  C076  F088         	movff	?_readTemperatureSensor+1,___fltol@f1+1
   725  000EFC  C077  F089         	movff	?_readTemperatureSensor+2,___fltol@f1+2
   726  000F00  C078  F08A         	movff	?_readTemperatureSensor+3,___fltol@f1+3
   727  000F04  EC46  F009         	call	___fltol	;wreg free
   728  000F08  C087  F0AD         	movff	?___fltol,_ambient_temp
   729  000F0C  C088  F0AE         	movff	?___fltol+1,_ambient_temp+1
   730  000F10                     
   731                           ;main.c: 93:     plate_temp = readTemperatureSensor(010);
   732  000F10  0E00               	movlw	0
   733  000F12  0100               	movlb	0	; () banked
   734  000F14  6F76               	movwf	(readTemperatureSensor@channel+1)& (0+255),b
   735  000F16  0E08               	movlw	8
   736  000F18  6F75               	movwf	readTemperatureSensor@channel& (0+255),b
   737  000F1A  EC2E  F008         	call	_readTemperatureSensor	;wreg free
   738  000F1E  C075  F087         	movff	?_readTemperatureSensor,___fltol@f1
   739  000F22  C076  F088         	movff	?_readTemperatureSensor+1,___fltol@f1+1
   740  000F26  C077  F089         	movff	?_readTemperatureSensor+2,___fltol@f1+2
   741  000F2A  C078  F08A         	movff	?_readTemperatureSensor+3,___fltol@f1+3
   742  000F2E  EC46  F009         	call	___fltol	;wreg free
   743  000F32  C087  F0AB         	movff	?___fltol,_plate_temp
   744  000F36  C088  F0AC         	movff	?___fltol+1,_plate_temp+1
   745  000F3A                     
   746                           ;main.c: 94:     internal_temp = readTemperatureSensor(001);
   747  000F3A  0E00               	movlw	0
   748  000F3C  0100               	movlb	0	; () banked
   749  000F3E  6F76               	movwf	(readTemperatureSensor@channel+1)& (0+255),b
   750  000F40  0E01               	movlw	1
   751  000F42  6F75               	movwf	readTemperatureSensor@channel& (0+255),b
   752  000F44  EC2E  F008         	call	_readTemperatureSensor	;wreg free
   753  000F48  C075  F087         	movff	?_readTemperatureSensor,___fltol@f1
   754  000F4C  C076  F088         	movff	?_readTemperatureSensor+1,___fltol@f1+1
   755  000F50  C077  F089         	movff	?_readTemperatureSensor+2,___fltol@f1+2
   756  000F54  C078  F08A         	movff	?_readTemperatureSensor+3,___fltol@f1+3
   757  000F58  EC46  F009         	call	___fltol	;wreg free
   758  000F5C  C087  F0A7         	movff	?___fltol,_internal_temp
   759  000F60  C088  F0A8         	movff	?___fltol+1,_internal_temp+1
   760  000F64                     
   761                           ;main.c: 95:     soil_temp = readTemperatureSensor(011);
   762  000F64  0E00               	movlw	0
   763  000F66  0100               	movlb	0	; () banked
   764  000F68  6F76               	movwf	(readTemperatureSensor@channel+1)& (0+255),b
   765  000F6A  0E09               	movlw	9
   766  000F6C  6F75               	movwf	readTemperatureSensor@channel& (0+255),b
   767  000F6E  EC2E  F008         	call	_readTemperatureSensor	;wreg free
   768  000F72  C075  F087         	movff	?_readTemperatureSensor,___fltol@f1
   769  000F76  C076  F088         	movff	?_readTemperatureSensor+1,___fltol@f1+1
   770  000F7A  C077  F089         	movff	?_readTemperatureSensor+2,___fltol@f1+2
   771  000F7E  C078  F08A         	movff	?_readTemperatureSensor+3,___fltol@f1+3
   772  000F82  EC46  F009         	call	___fltol	;wreg free
   773  000F86  C087  F0A9         	movff	?___fltol,_soil_temp
   774  000F8A  C088  F0AA         	movff	?___fltol+1,_soil_temp+1
   775  000F8E                     
   776                           ;main.c: 97:     setDisplayTemperature(ambient_temp);
   777  000F8E  C0AD  F011         	movff	_ambient_temp,setDisplayTemperature@temp
   778  000F92  C0AE  F012         	movff	_ambient_temp+1,setDisplayTemperature@temp+1
   779  000F96  EC1F  F00D         	call	_setDisplayTemperature	;wreg free
   780  000F9A                     
   781                           ;main.c: 98:     openDisplay();
   782  000F9A  EC24  F00D         	call	_openDisplay	;wreg free
   783  000F9E                     
   784                           ;main.c: 100:     TMR2_StartTimer();
   785  000F9E  EC48  F00D         	call	_TMR2_StartTimer	;wreg free
   786  000FA2                     
   787                           ;main.c: 105:     setStateLEDs(currentSensorState, currentSensor);
   788  000FA2  0E03               	movlw	3
   789  000FA4  6E11               	movwf	setStateLEDs@currentSensor^0,c
   790  000FA6  0E00               	movlw	0
   791  000FA8  ECAA  F00A         	call	_setStateLEDs
   792  000FAC                     l3783:
   793                           
   794                           ;main.c: 108:     {;main.c: 110:         ambient_temp = readTemperatureSensor(000);
   795  000FAC  0E00               	movlw	0
   796  000FAE  0100               	movlb	0	; () banked
   797  000FB0  6F76               	movwf	(readTemperatureSensor@channel+1)& (0+255),b
   798  000FB2  0E00               	movlw	0
   799  000FB4  6F75               	movwf	readTemperatureSensor@channel& (0+255),b
   800  000FB6  EC2E  F008         	call	_readTemperatureSensor	;wreg free
   801  000FBA  C075  F087         	movff	?_readTemperatureSensor,___fltol@f1
   802  000FBE  C076  F088         	movff	?_readTemperatureSensor+1,___fltol@f1+1
   803  000FC2  C077  F089         	movff	?_readTemperatureSensor+2,___fltol@f1+2
   804  000FC6  C078  F08A         	movff	?_readTemperatureSensor+3,___fltol@f1+3
   805  000FCA  EC46  F009         	call	___fltol	;wreg free
   806  000FCE  C087  F0AD         	movff	?___fltol,_ambient_temp
   807  000FD2  C088  F0AE         	movff	?___fltol+1,_ambient_temp+1
   808  000FD6                     
   809                           ;main.c: 111:         plate_temp = readTemperatureSensor(010);
   810  000FD6  0E00               	movlw	0
   811  000FD8  0100               	movlb	0	; () banked
   812  000FDA  6F76               	movwf	(readTemperatureSensor@channel+1)& (0+255),b
   813  000FDC  0E08               	movlw	8
   814  000FDE  6F75               	movwf	readTemperatureSensor@channel& (0+255),b
   815  000FE0  EC2E  F008         	call	_readTemperatureSensor	;wreg free
   816  000FE4  C075  F087         	movff	?_readTemperatureSensor,___fltol@f1
   817  000FE8  C076  F088         	movff	?_readTemperatureSensor+1,___fltol@f1+1
   818  000FEC  C077  F089         	movff	?_readTemperatureSensor+2,___fltol@f1+2
   819  000FF0  C078  F08A         	movff	?_readTemperatureSensor+3,___fltol@f1+3
   820  000FF4  EC46  F009         	call	___fltol	;wreg free
   821  000FF8  C087  F0AB         	movff	?___fltol,_plate_temp
   822  000FFC  C088  F0AC         	movff	?___fltol+1,_plate_temp+1
   823  001000                     
   824                           ;main.c: 112:         internal_temp = readTemperatureSensor(001);
   825  001000  0E00               	movlw	0
   826  001002  0100               	movlb	0	; () banked
   827  001004  6F76               	movwf	(readTemperatureSensor@channel+1)& (0+255),b
   828  001006  0E01               	movlw	1
   829  001008  6F75               	movwf	readTemperatureSensor@channel& (0+255),b
   830  00100A  EC2E  F008         	call	_readTemperatureSensor	;wreg free
   831  00100E  C075  F087         	movff	?_readTemperatureSensor,___fltol@f1
   832  001012  C076  F088         	movff	?_readTemperatureSensor+1,___fltol@f1+1
   833  001016  C077  F089         	movff	?_readTemperatureSensor+2,___fltol@f1+2
   834  00101A  C078  F08A         	movff	?_readTemperatureSensor+3,___fltol@f1+3
   835  00101E  EC46  F009         	call	___fltol	;wreg free
   836  001022  C087  F0A7         	movff	?___fltol,_internal_temp
   837  001026  C088  F0A8         	movff	?___fltol+1,_internal_temp+1
   838  00102A                     
   839                           ;main.c: 113:         soil_temp = readTemperatureSensor(011);
   840  00102A  0E00               	movlw	0
   841  00102C  0100               	movlb	0	; () banked
   842  00102E  6F76               	movwf	(readTemperatureSensor@channel+1)& (0+255),b
   843  001030  0E09               	movlw	9
   844  001032  6F75               	movwf	readTemperatureSensor@channel& (0+255),b
   845  001034  EC2E  F008         	call	_readTemperatureSensor	;wreg free
   846  001038  C075  F087         	movff	?_readTemperatureSensor,___fltol@f1
   847  00103C  C076  F088         	movff	?_readTemperatureSensor+1,___fltol@f1+1
   848  001040  C077  F089         	movff	?_readTemperatureSensor+2,___fltol@f1+2
   849  001044  C078  F08A         	movff	?_readTemperatureSensor+3,___fltol@f1+3
   850  001048  EC46  F009         	call	___fltol	;wreg free
   851  00104C  C087  F0A9         	movff	?___fltol,_soil_temp
   852  001050  C088  F0AA         	movff	?___fltol+1,_soil_temp+1
   853  001054  EFD6  F007         	goto	l3783
   854  001058  EF3A  F000         	goto	start
   855  00105C                     __end_of_main:
   856                           	opt callstack 0
   857                           
   858 ;; *************** function _setStateLEDs *****************
   859 ;; Defined at:
   860 ;;		line 4 in file "stateLEDDriver.c"
   861 ;; Parameters:    Size  Location     Type
   862 ;;  rState          1    wreg     enum E2677
   863 ;;  currentSenso    1   16[COMRAM] enum E2671
   864 ;; Auto vars:     Size  Location     Type
   865 ;;  rState          1   19[COMRAM] enum E2677
   866 ;; Return value:  Size  Location     Type
   867 ;;                  1    wreg      void 
   868 ;; Registers used:
   869 ;;		wreg, status,2, status,0
   870 ;; Tracked objects:
   871 ;;		On entry : 0/0
   872 ;;		On exit  : 0/0
   873 ;;		Unchanged: 0/0
   874 ;; Data sizes:     COMRAM   BANK0   BANK1   BANK2   BANK3   BANK4   BANK5
   875 ;;      Params:         1       0       0       0       0       0       0
   876 ;;      Locals:         1       0       0       0       0       0       0
   877 ;;      Temps:          2       0       0       0       0       0       0
   878 ;;      Totals:         4       0       0       0       0       0       0
   879 ;;Total ram usage:        4 bytes
   880 ;; Hardware stack levels used:    1
   881 ;; Hardware stack levels required when called:    6
   882 ;; This function calls:
   883 ;;		Nothing
   884 ;; This function is called by:
   885 ;;		_main
   886 ;; This function uses a non-reentrant model
   887 ;;
   888                           
   889                           	psect	text1
   890  001554                     __ptext1:
   891                           	opt callstack 0
   892  001554                     _setStateLEDs:
   893                           	opt callstack 24
   894                           
   895                           ;incstack = 0
   896                           ;setStateLEDs@rState stored from wreg
   897  001554  6E14               	movwf	setStateLEDs@rState^0,c
   898  001556                     
   899                           ;stateLEDDriver.c: 4: void setStateLEDs(reading_state rState, sensor currentSensor);stat
      +                          eLEDDriver.c: 5: {;stateLEDDriver.c: 6:     LATA &= !(1<<4);
   900  001556  0E00               	movlw	0
   901  001558  6E89               	movwf	137,c	;volatile
   902                           
   903                           ;stateLEDDriver.c: 7:     LATA &= !(1<<5);
   904  00155A  0E00               	movlw	0
   905  00155C  6E89               	movwf	137,c	;volatile
   906                           
   907                           ;stateLEDDriver.c: 8:     LATE &= !(1<<0);
   908  00155E  0E00               	movlw	0
   909  001560  6E8D               	movwf	141,c	;volatile
   910                           
   911                           ;stateLEDDriver.c: 9:     LATE &= !(1<<1);
   912  001562  0E00               	movlw	0
   913  001564  6E8D               	movwf	141,c	;volatile
   914                           
   915                           ;stateLEDDriver.c: 10:     LATE &= !(1<<2);
   916  001566  0E00               	movlw	0
   917  001568  6E8D               	movwf	141,c	;volatile
   918                           
   919                           ;stateLEDDriver.c: 11:     LATA &= !(1<<7);
   920  00156A  0E00               	movlw	0
   921  00156C  6E89               	movwf	137,c	;volatile
   922                           
   923                           ;stateLEDDriver.c: 14:     switch(rState)
   924  00156E  EFBF  F00A         	goto	l3329
   925  001572                     l3323:
   926                           
   927                           ;stateLEDDriver.c: 17:             LATE |= (1<<2);
   928  001572  848D               	bsf	141,2,c	;volatile
   929                           
   930                           ;stateLEDDriver.c: 18:             break;
   931  001574  EFE4  F00A         	goto	l3341
   932  001578                     l3325:
   933                           
   934                           ;stateLEDDriver.c: 20:             LATA |= (1<<7);
   935  001578  8E89               	bsf	137,7,c	;volatile
   936                           
   937                           ;stateLEDDriver.c: 21:             break;
   938  00157A  EFE4  F00A         	goto	l3341
   939  00157E                     l3329:
   940  00157E  5014               	movf	setStateLEDs@rState^0,w,c
   941  001580  6E12               	movwf	??_setStateLEDs^0,c
   942  001582  6A13               	clrf	(??_setStateLEDs+1)^0,c
   943                           
   944                           ; Switch on 2 bytes has been partitioned into a top level switch of size 1, and 1 sub-sw
      +                          itches
   945                           ; Switch size 1, requested type "simple"
   946                           ; Number of cases is 1, Range of values is 0 to 0
   947                           ; switch strategies available:
   948                           ; Name         Instructions Cycles
   949                           ; simple_byte            4     3 (average)
   950                           ;	Chosen strategy is simple_byte
   951  001584  5013               	movf	(??_setStateLEDs+1)^0,w,c
   952  001586  0A00               	xorlw	0	; case 0
   953  001588  B4D8               	btfsc	status,2,c
   954  00158A  EFC9  F00A         	goto	l3851
   955  00158E  EFE4  F00A         	goto	l3341
   956  001592                     l3851:
   957                           
   958                           ; Switch size 1, requested type "simple"
   959                           ; Number of cases is 3, Range of values is 0 to 2
   960                           ; switch strategies available:
   961                           ; Name         Instructions Cycles
   962                           ; simple_byte           10     6 (average)
   963                           ;	Chosen strategy is simple_byte
   964  001592  5012               	movf	??_setStateLEDs^0,w,c
   965  001594  0A00               	xorlw	0	; case 0
   966  001596  B4D8               	btfsc	status,2,c
   967  001598  EFB9  F00A         	goto	l3323
   968  00159C  0A01               	xorlw	1	; case 1
   969  00159E  B4D8               	btfsc	status,2,c
   970  0015A0  EFBC  F00A         	goto	l3325
   971  0015A4  0A03               	xorlw	3	; case 2
   972  0015A6  B4D8               	btfsc	status,2,c
   973  0015A8  EF01  F00B         	goto	l420
   974  0015AC  EFE4  F00A         	goto	l3341
   975  0015B0                     l3331:
   976                           
   977                           ;stateLEDDriver.c: 31:             LATE |= (1<<1);
   978  0015B0  828D               	bsf	141,1,c	;volatile
   979                           
   980                           ;stateLEDDriver.c: 32:             break;
   981  0015B2  EF01  F00B         	goto	l420
   982  0015B6                     l3333:
   983                           
   984                           ;stateLEDDriver.c: 34:             LATA |= (1<<4);
   985  0015B6  8889               	bsf	137,4,c	;volatile
   986                           
   987                           ;stateLEDDriver.c: 35:             break;
   988  0015B8  EF01  F00B         	goto	l420
   989  0015BC                     l3335:
   990                           
   991                           ;stateLEDDriver.c: 37:             LATA |= (1<<5);
   992  0015BC  8A89               	bsf	137,5,c	;volatile
   993                           
   994                           ;stateLEDDriver.c: 38:             break;
   995  0015BE  EF01  F00B         	goto	l420
   996  0015C2                     l3337:
   997                           
   998                           ;stateLEDDriver.c: 40:             LATE |= (1<< 0);
   999  0015C2  808D               	bsf	141,0,c	;volatile
  1000                           
  1001                           ;stateLEDDriver.c: 41:             break;
  1002  0015C4  EF01  F00B         	goto	l420
  1003  0015C8                     l3341:
  1004  0015C8  5011               	movf	setStateLEDs@currentSensor^0,w,c
  1005  0015CA  6E12               	movwf	??_setStateLEDs^0,c
  1006  0015CC  6A13               	clrf	(??_setStateLEDs+1)^0,c
  1007                           
  1008                           ; Switch on 2 bytes has been partitioned into a top level switch of size 1, and 1 sub-sw
      +                          itches
  1009                           ; Switch size 1, requested type "simple"
  1010                           ; Number of cases is 1, Range of values is 0 to 0
  1011                           ; switch strategies available:
  1012                           ; Name         Instructions Cycles
  1013                           ; simple_byte            4     3 (average)
  1014                           ;	Chosen strategy is simple_byte
  1015  0015CE  5013               	movf	(??_setStateLEDs+1)^0,w,c
  1016  0015D0  0A00               	xorlw	0	; case 0
  1017  0015D2  B4D8               	btfsc	status,2,c
  1018  0015D4  EFEE  F00A         	goto	l3853
  1019  0015D8  EF01  F00B         	goto	l420
  1020  0015DC                     l3853:
  1021                           
  1022                           ; Switch size 1, requested type "simple"
  1023                           ; Number of cases is 4, Range of values is 0 to 3
  1024                           ; switch strategies available:
  1025                           ; Name         Instructions Cycles
  1026                           ; simple_byte           13     7 (average)
  1027                           ;	Chosen strategy is simple_byte
  1028  0015DC  5012               	movf	??_setStateLEDs^0,w,c
  1029  0015DE  0A00               	xorlw	0	; case 0
  1030  0015E0  B4D8               	btfsc	status,2,c
  1031  0015E2  EFE1  F00A         	goto	l3337
  1032  0015E6  0A01               	xorlw	1	; case 1
  1033  0015E8  B4D8               	btfsc	status,2,c
  1034  0015EA  EFDB  F00A         	goto	l3333
  1035  0015EE  0A03               	xorlw	3	; case 2
  1036  0015F0  B4D8               	btfsc	status,2,c
  1037  0015F2  EFDE  F00A         	goto	l3335
  1038  0015F6  0A01               	xorlw	1	; case 3
  1039  0015F8  B4D8               	btfsc	status,2,c
  1040  0015FA  EFD8  F00A         	goto	l3331
  1041  0015FE  EF01  F00B         	goto	l420
  1042  001602                     l420:
  1043  001602  0012               	return		;funcret
  1044  001604                     __end_of_setStateLEDs:
  1045                           	opt callstack 0
  1046                           
  1047 ;; *************** function _setDisplayTemperature *****************
  1048 ;; Defined at:
  1049 ;;		line 11 in file "segmentDisplayDriver.c"
  1050 ;; Parameters:    Size  Location     Type
  1051 ;;  temp            2   16[COMRAM] int 
  1052 ;; Auto vars:     Size  Location     Type
  1053 ;;		None
  1054 ;; Return value:  Size  Location     Type
  1055 ;;                  1    wreg      void 
  1056 ;; Registers used:
  1057 ;;		None
  1058 ;; Tracked objects:
  1059 ;;		On entry : 0/0
  1060 ;;		On exit  : 0/0
  1061 ;;		Unchanged: 0/0
  1062 ;; Data sizes:     COMRAM   BANK0   BANK1   BANK2   BANK3   BANK4   BANK5
  1063 ;;      Params:         2       0       0       0       0       0       0
  1064 ;;      Locals:         0       0       0       0       0       0       0
  1065 ;;      Temps:          0       0       0       0       0       0       0
  1066 ;;      Totals:         2       0       0       0       0       0       0
  1067 ;;Total ram usage:        2 bytes
  1068 ;; Hardware stack levels used:    1
  1069 ;; Hardware stack levels required when called:    6
  1070 ;; This function calls:
  1071 ;;		Nothing
  1072 ;; This function is called by:
  1073 ;;		_main
  1074 ;;		_PrintTemp
  1075 ;; This function uses a non-reentrant model
  1076 ;;
  1077                           
  1078                           	psect	text2
  1079  001A3E                     __ptext2:
  1080                           	opt callstack 0
  1081  001A3E                     _setDisplayTemperature:
  1082                           	opt callstack 24
  1083  001A3E                     
  1084                           ;segmentDisplayDriver.c: 11: void setDisplayTemperature(int temp);segmentDisplayDriver.c
      +                          : 12: {;segmentDisplayDriver.c: 13:     temperature = temp;
  1085  001A3E  C011  F048         	movff	setDisplayTemperature@temp,_temperature
  1086  001A42  C012  F049         	movff	setDisplayTemperature@temp+1,_temperature+1
  1087  001A46  0012               	return		;funcret
  1088  001A48                     __end_of_setDisplayTemperature:
  1089                           	opt callstack 0
  1090                           
  1091 ;; *************** function _readTemperatureSensor *****************
  1092 ;; Defined at:
  1093 ;;		line 15 in file "tempreature_sensor_driver.c"
  1094 ;; Parameters:    Size  Location     Type
  1095 ;;  channel         2   21[BANK0 ] unsigned int 
  1096 ;; Auto vars:     Size  Location     Type
  1097 ;;  temp            4   35[BANK0 ] float 
  1098 ;;  Vout            4   25[BANK0 ] float 
  1099 ;;  ADCvalue        2   33[BANK0 ] unsigned int 
  1100 ;; Return value:  Size  Location     Type
  1101 ;;                  4   21[BANK0 ] float 
  1102 ;; Registers used:
  1103 ;;		wreg, status,2, status,0, prodl, prodh, cstack
  1104 ;; Tracked objects:
  1105 ;;		On entry : 0/0
  1106 ;;		On exit  : 0/0
  1107 ;;		Unchanged: 0/0
  1108 ;; Data sizes:     COMRAM   BANK0   BANK1   BANK2   BANK3   BANK4   BANK5
  1109 ;;      Params:         0       4       0       0       0       0       0
  1110 ;;      Locals:         0      14       0       0       0       0       0
  1111 ;;      Temps:          0       0       0       0       0       0       0
  1112 ;;      Totals:         0      18       0       0       0       0       0
  1113 ;;Total ram usage:       18 bytes
  1114 ;; Hardware stack levels used:    1
  1115 ;; Hardware stack levels required when called:    8
  1116 ;; This function calls:
  1117 ;;		_ADCRead
  1118 ;;		_ADC_SelectChannel
  1119 ;;		___fladd
  1120 ;;		___fldiv
  1121 ;;		___flmul
  1122 ;;		___xxtofl
  1123 ;; This function is called by:
  1124 ;;		_main
  1125 ;; This function uses a non-reentrant model
  1126 ;;
  1127                           
  1128                           	psect	text3
  1129  00105C                     __ptext3:
  1130                           	opt callstack 0
  1131  00105C                     _readTemperatureSensor:
  1132                           	opt callstack 22
  1133  00105C                     
  1134                           ;tempreature_sensor_driver.c: 15: float readTemperatureSensor(unsigned int channel);temp
      +                          reature_sensor_driver.c: 16: {;tempreature_sensor_driver.c: 17:     ADC_SelectChannel(ch
      +                          annel);
  1135  00105C  0100               	movlb	0	; () banked
  1136  00105E  5175               	movf	readTemperatureSensor@channel& (0+255),w,b
  1137  001060  ECE0  F00C         	call	_ADC_SelectChannel
  1138                           
  1139                           ;tempreature_sensor_driver.c: 18:     unsigned int ADCvalue = ADCRead();
  1140  001064  EC8E  F00C         	call	_ADCRead	;wreg free
  1141  001068  C015  F081         	movff	?_ADCRead,readTemperatureSensor@ADCvalue
  1142  00106C  C016  F082         	movff	?_ADCRead+1,readTemperatureSensor@ADCvalue+1
  1143  001070                     
  1144                           ;tempreature_sensor_driver.c: 21:     float Vout = (float) ADCvalue * 5.0 * 1000 / 1024.
      +                          0 ;
  1145  001070  0E00               	movlw	0
  1146  001072  6E23               	movwf	___flmul@a^0,c
  1147  001074  0E00               	movlw	0
  1148  001076  6E24               	movwf	(___flmul@a+1)^0,c
  1149  001078  0EA0               	movlw	160
  1150  00107A  6E25               	movwf	(___flmul@a+2)^0,c
  1151  00107C  0E40               	movlw	64
  1152  00107E  6E26               	movwf	(___flmul@a+3)^0,c
  1153  001080  C081  F011         	movff	readTemperatureSensor@ADCvalue,___xxtofl@val
  1154  001084  C082  F012         	movff	readTemperatureSensor@ADCvalue+1,___xxtofl@val+1
  1155  001088  6A13               	clrf	(___xxtofl@val+2)^0,c
  1156  00108A  6A14               	clrf	(___xxtofl@val+3)^0,c
  1157  00108C  0E00               	movlw	0
  1158  00108E  EC7F  F006         	call	___xxtofl
  1159  001092  C011  F01F         	movff	?___xxtofl,___flmul@b
  1160  001096  C012  F020         	movff	?___xxtofl+1,___flmul@b+1
  1161  00109A  C013  F021         	movff	?___xxtofl+2,___flmul@b+2
  1162  00109E  C014  F022         	movff	?___xxtofl+3,___flmul@b+3
  1163  0010A2  EC9C  F002         	call	___flmul	;wreg free
  1164  0010A6  C01F  F07D         	movff	?___flmul,_readTemperatureSensor$1820
  1165  0010AA  C020  F07E         	movff	?___flmul+1,_readTemperatureSensor$1820+1
  1166  0010AE  C021  F07F         	movff	?___flmul+2,_readTemperatureSensor$1820+2
  1167  0010B2  C022  F080         	movff	?___flmul+3,_readTemperatureSensor$1820+3
  1168  0010B6                     
  1169                           ;tempreature_sensor_driver.c: 21:     float Vout = (float) ADCvalue * 5.0 * 1000 / 1024.
      +                          0 ;
  1170  0010B6  0E00               	movlw	0
  1171  0010B8  6E23               	movwf	___flmul@a^0,c
  1172  0010BA  0E00               	movlw	0
  1173  0010BC  6E24               	movwf	(___flmul@a+1)^0,c
  1174  0010BE  0E7A               	movlw	122
  1175  0010C0  6E25               	movwf	(___flmul@a+2)^0,c
  1176  0010C2  0E44               	movlw	68
  1177  0010C4  6E26               	movwf	(___flmul@a+3)^0,c
  1178  0010C6  C07D  F01F         	movff	_readTemperatureSensor$1820,___flmul@b
  1179  0010CA  C07E  F020         	movff	_readTemperatureSensor$1820+1,___flmul@b+1
  1180  0010CE  C07F  F021         	movff	_readTemperatureSensor$1820+2,___flmul@b+2
  1181  0010D2  C080  F022         	movff	_readTemperatureSensor$1820+3,___flmul@b+3
  1182  0010D6  EC9C  F002         	call	___flmul	;wreg free
  1183  0010DA  C01F  F060         	movff	?___flmul,___fldiv@b
  1184  0010DE  C020  F061         	movff	?___flmul+1,___fldiv@b+1
  1185  0010E2  C021  F062         	movff	?___flmul+2,___fldiv@b+2
  1186  0010E6  C022  F063         	movff	?___flmul+3,___fldiv@b+3
  1187  0010EA  0E00               	movlw	0
  1188  0010EC  0100               	movlb	0	; () banked
  1189  0010EE  6F64               	movwf	___fldiv@a& (0+255),b
  1190  0010F0  0E00               	movlw	0
  1191  0010F2  6F65               	movwf	(___fldiv@a+1)& (0+255),b
  1192  0010F4  0E80               	movlw	128
  1193  0010F6  6F66               	movwf	(___fldiv@a+2)& (0+255),b
  1194  0010F8  0E44               	movlw	68
  1195  0010FA  6F67               	movwf	(___fldiv@a+3)& (0+255),b
  1196  0010FC  ECB1  F004         	call	___fldiv	;wreg free
  1197  001100  C060  F079         	movff	?___fldiv,readTemperatureSensor@Vout
  1198  001104  C061  F07A         	movff	?___fldiv+1,readTemperatureSensor@Vout+1
  1199  001108  C062  F07B         	movff	?___fldiv+2,readTemperatureSensor@Vout+2
  1200  00110C  C063  F07C         	movff	?___fldiv+3,readTemperatureSensor@Vout+3
  1201  001110                     
  1202                           ;tempreature_sensor_driver.c: 22:     temp = (Vout - 500.0)/10.0;
  1203  001110  0E00               	movlw	0
  1204  001112  6E15               	movwf	___fladd@a^0,c
  1205  001114  0E00               	movlw	0
  1206  001116  6E16               	movwf	(___fladd@a+1)^0,c
  1207  001118  0EFA               	movlw	250
  1208  00111A  6E17               	movwf	(___fladd@a+2)^0,c
  1209  00111C  0EC3               	movlw	195
  1210  00111E  6E18               	movwf	(___fladd@a+3)^0,c
  1211  001120  C079  F011         	movff	readTemperatureSensor@Vout,___fladd@b
  1212  001124  C07A  F012         	movff	readTemperatureSensor@Vout+1,___fladd@b+1
  1213  001128  C07B  F013         	movff	readTemperatureSensor@Vout+2,___fladd@b+2
  1214  00112C  C07C  F014         	movff	readTemperatureSensor@Vout+3,___fladd@b+3
  1215  001130  EC3C  F000         	call	___fladd	;wreg free
  1216  001134  C011  F060         	movff	?___fladd,___fldiv@b
  1217  001138  C012  F061         	movff	?___fladd+1,___fldiv@b+1
  1218  00113C  C013  F062         	movff	?___fladd+2,___fldiv@b+2
  1219  001140  C014  F063         	movff	?___fladd+3,___fldiv@b+3
  1220  001144  0E00               	movlw	0
  1221  001146  0100               	movlb	0	; () banked
  1222  001148  6F64               	movwf	___fldiv@a& (0+255),b
  1223  00114A  0E00               	movlw	0
  1224  00114C  6F65               	movwf	(___fldiv@a+1)& (0+255),b
  1225  00114E  0E20               	movlw	32
  1226  001150  6F66               	movwf	(___fldiv@a+2)& (0+255),b
  1227  001152  0E41               	movlw	65
  1228  001154  6F67               	movwf	(___fldiv@a+3)& (0+255),b
  1229  001156  ECB1  F004         	call	___fldiv	;wreg free
  1230  00115A  C060  F083         	movff	?___fldiv,readTemperatureSensor@temp
  1231  00115E  C061  F084         	movff	?___fldiv+1,readTemperatureSensor@temp+1
  1232  001162  C062  F085         	movff	?___fldiv+2,readTemperatureSensor@temp+2
  1233  001166  C063  F086         	movff	?___fldiv+3,readTemperatureSensor@temp+3
  1234  00116A                     
  1235                           ;tempreature_sensor_driver.c: 24:     return temp;
  1236  00116A  C083  F075         	movff	readTemperatureSensor@temp,?_readTemperatureSensor
  1237  00116E  C084  F076         	movff	readTemperatureSensor@temp+1,?_readTemperatureSensor+1
  1238  001172  C085  F077         	movff	readTemperatureSensor@temp+2,?_readTemperatureSensor+2
  1239  001176  C086  F078         	movff	readTemperatureSensor@temp+3,?_readTemperatureSensor+3
  1240  00117A  0012               	return		;funcret
  1241  00117C                     __end_of_readTemperatureSensor:
  1242                           	opt callstack 0
  1243                           
  1244 ;; *************** function ___xxtofl *****************
  1245 ;; Defined at:
  1246 ;;		line 10 in file "D:\programs\pic\sources\c99\common\xxtofl.c"
  1247 ;; Parameters:    Size  Location     Type
  1248 ;;  sign            1    wreg     unsigned char 
  1249 ;;  val             4   16[COMRAM] long 
  1250 ;; Auto vars:     Size  Location     Type
  1251 ;;  sign            1   24[COMRAM] unsigned char 
  1252 ;;  arg             4   26[COMRAM] unsigned long 
  1253 ;;  exp             1   25[COMRAM] unsigned char 
  1254 ;; Return value:  Size  Location     Type
  1255 ;;                  4   16[COMRAM] unsigned char 
  1256 ;; Registers used:
  1257 ;;		wreg, status,2, status,0
  1258 ;; Tracked objects:
  1259 ;;		On entry : 0/0
  1260 ;;		On exit  : 0/0
  1261 ;;		Unchanged: 0/0
  1262 ;; Data sizes:     COMRAM   BANK0   BANK1   BANK2   BANK3   BANK4   BANK5
  1263 ;;      Params:         4       0       0       0       0       0       0
  1264 ;;      Locals:         6       0       0       0       0       0       0
  1265 ;;      Temps:          4       0       0       0       0       0       0
  1266 ;;      Totals:        14       0       0       0       0       0       0
  1267 ;;Total ram usage:       14 bytes
  1268 ;; Hardware stack levels used:    1
  1269 ;; Hardware stack levels required when called:    6
  1270 ;; This function calls:
  1271 ;;		Nothing
  1272 ;; This function is called by:
  1273 ;;		_readTemperatureSensor
  1274 ;; This function uses a non-reentrant model
  1275 ;;
  1276                           
  1277                           	psect	text4
  1278  000CFE                     __ptext4:
  1279                           	opt callstack 0
  1280  000CFE                     ___xxtofl:
  1281                           	opt callstack 23
  1282                           
  1283                           ;incstack = 0
  1284                           ;___xxtofl@sign stored from wreg
  1285  000CFE  6E19               	movwf	___xxtofl@sign^0,c
  1286  000D00  5019               	movf	___xxtofl@sign^0,w,c
  1287  000D02  B4D8               	btfsc	status,2,c
  1288  000D04  EF86  F006         	goto	u2641
  1289  000D08  EF88  F006         	goto	u2640
  1290  000D0C                     u2641:
  1291  000D0C  EFAA  F006         	goto	l1191
  1292  000D10                     u2640:
  1293  000D10  BE14               	btfsc	(___xxtofl@val+3)^0,7,c
  1294  000D12  EF8F  F006         	goto	u2650
  1295  000D16  EF8D  F006         	goto	u2651
  1296  000D1A                     u2651:
  1297  000D1A  EFAA  F006         	goto	l1191
  1298  000D1E                     u2650:
  1299  000D1E  C011  F015         	movff	___xxtofl@val,??___xxtofl
  1300  000D22  C012  F016         	movff	___xxtofl@val+1,??___xxtofl+1
  1301  000D26  C013  F017         	movff	___xxtofl@val+2,??___xxtofl+2
  1302  000D2A  C014  F018         	movff	___xxtofl@val+3,??___xxtofl+3
  1303  000D2E  1E15               	comf	??___xxtofl^0,f,c
  1304  000D30  1E16               	comf	(??___xxtofl+1)^0,f,c
  1305  000D32  1E17               	comf	(??___xxtofl+2)^0,f,c
  1306  000D34  1E18               	comf	(??___xxtofl+3)^0,f,c
  1307  000D36  2A15               	incf	??___xxtofl^0,f,c
  1308  000D38  0E00               	movlw	0
  1309  000D3A  2216               	addwfc	(??___xxtofl+1)^0,f,c
  1310  000D3C  2217               	addwfc	(??___xxtofl+2)^0,f,c
  1311  000D3E  2218               	addwfc	(??___xxtofl+3)^0,f,c
  1312  000D40  C015  F01B         	movff	??___xxtofl,___xxtofl@arg
  1313  000D44  C016  F01C         	movff	??___xxtofl+1,___xxtofl@arg+1
  1314  000D48  C017  F01D         	movff	??___xxtofl+2,___xxtofl@arg+2
  1315  000D4C  C018  F01E         	movff	??___xxtofl+3,___xxtofl@arg+3
  1316  000D50  EFB2  F006         	goto	l3233
  1317  000D54                     l1191:
  1318  000D54  C011  F01B         	movff	___xxtofl@val,___xxtofl@arg
  1319  000D58  C012  F01C         	movff	___xxtofl@val+1,___xxtofl@arg+1
  1320  000D5C  C013  F01D         	movff	___xxtofl@val+2,___xxtofl@arg+2
  1321  000D60  C014  F01E         	movff	___xxtofl@val+3,___xxtofl@arg+3
  1322  000D64                     l3233:
  1323  000D64  5011               	movf	___xxtofl@val^0,w,c
  1324  000D66  1012               	iorwf	(___xxtofl@val+1)^0,w,c
  1325  000D68  1013               	iorwf	(___xxtofl@val+2)^0,w,c
  1326  000D6A  1014               	iorwf	(___xxtofl@val+3)^0,w,c
  1327  000D6C  A4D8               	btfss	status,2,c
  1328  000D6E  EFBB  F006         	goto	u2661
  1329  000D72  EFBD  F006         	goto	u2660
  1330  000D76                     u2661:
  1331  000D76  EFC7  F006         	goto	l3239
  1332  000D7A                     u2660:
  1333  000D7A  0E00               	movlw	0
  1334  000D7C  6E11               	movwf	?___xxtofl^0,c
  1335  000D7E  0E00               	movlw	0
  1336  000D80  6E12               	movwf	(?___xxtofl+1)^0,c
  1337  000D82  0E00               	movlw	0
  1338  000D84  6E13               	movwf	(?___xxtofl+2)^0,c
  1339  000D86  0E00               	movlw	0
  1340  000D88  6E14               	movwf	(?___xxtofl+3)^0,c
  1341  000D8A  EF58  F007         	goto	l1194
  1342  000D8E                     l3239:
  1343  000D8E  0E96               	movlw	150
  1344  000D90  6E1A               	movwf	___xxtofl@exp^0,c
  1345  000D92  EFD1  F006         	goto	l3243
  1346  000D96                     l3241:
  1347  000D96  2A1A               	incf	___xxtofl@exp^0,f,c
  1348  000D98  90D8               	bcf	status,0,c
  1349  000D9A  321E               	rrcf	(___xxtofl@arg+3)^0,f,c
  1350  000D9C  321D               	rrcf	(___xxtofl@arg+2)^0,f,c
  1351  000D9E  321C               	rrcf	(___xxtofl@arg+1)^0,f,c
  1352  000DA0  321B               	rrcf	___xxtofl@arg^0,f,c
  1353  000DA2                     l3243:
  1354  000DA2  0E00               	movlw	0
  1355  000DA4  141B               	andwf	___xxtofl@arg^0,w,c
  1356  000DA6  6E15               	movwf	??___xxtofl^0,c
  1357  000DA8  0E00               	movlw	0
  1358  000DAA  141C               	andwf	(___xxtofl@arg+1)^0,w,c
  1359  000DAC  6E16               	movwf	(??___xxtofl+1)^0,c
  1360  000DAE  0E00               	movlw	0
  1361  000DB0  141D               	andwf	(___xxtofl@arg+2)^0,w,c
  1362  000DB2  6E17               	movwf	(??___xxtofl+2)^0,c
  1363  000DB4  0EFE               	movlw	254
  1364  000DB6  141E               	andwf	(___xxtofl@arg+3)^0,w,c
  1365  000DB8  6E18               	movwf	(??___xxtofl+3)^0,c
  1366  000DBA  5015               	movf	??___xxtofl^0,w,c
  1367  000DBC  1016               	iorwf	(??___xxtofl+1)^0,w,c
  1368  000DBE  1017               	iorwf	(??___xxtofl+2)^0,w,c
  1369  000DC0  1018               	iorwf	(??___xxtofl+3)^0,w,c
  1370  000DC2  A4D8               	btfss	status,2,c
  1371  000DC4  EFE6  F006         	goto	u2671
  1372  000DC8  EFE8  F006         	goto	u2670
  1373  000DCC                     u2671:
  1374  000DCC  EFCB  F006         	goto	l3241
  1375  000DD0                     u2670:
  1376  000DD0  EFF6  F006         	goto	l1198
  1377  000DD4                     l3245:
  1378  000DD4  2A1A               	incf	___xxtofl@exp^0,f,c
  1379  000DD6  0E01               	movlw	1
  1380  000DD8  261B               	addwf	___xxtofl@arg^0,f,c
  1381  000DDA  0E00               	movlw	0
  1382  000DDC  221C               	addwfc	(___xxtofl@arg+1)^0,f,c
  1383  000DDE  221D               	addwfc	(___xxtofl@arg+2)^0,f,c
  1384  000DE0  221E               	addwfc	(___xxtofl@arg+3)^0,f,c
  1385  000DE2  90D8               	bcf	status,0,c
  1386  000DE4  321E               	rrcf	(___xxtofl@arg+3)^0,f,c
  1387  000DE6  321D               	rrcf	(___xxtofl@arg+2)^0,f,c
  1388  000DE8  321C               	rrcf	(___xxtofl@arg+1)^0,f,c
  1389  000DEA  321B               	rrcf	___xxtofl@arg^0,f,c
  1390  000DEC                     l1198:
  1391  000DEC  0E00               	movlw	0
  1392  000DEE  141B               	andwf	___xxtofl@arg^0,w,c
  1393  000DF0  6E15               	movwf	??___xxtofl^0,c
  1394  000DF2  0E00               	movlw	0
  1395  000DF4  141C               	andwf	(___xxtofl@arg+1)^0,w,c
  1396  000DF6  6E16               	movwf	(??___xxtofl+1)^0,c
  1397  000DF8  0E00               	movlw	0
  1398  000DFA  141D               	andwf	(___xxtofl@arg+2)^0,w,c
  1399  000DFC  6E17               	movwf	(??___xxtofl+2)^0,c
  1400  000DFE  0EFF               	movlw	255
  1401  000E00  141E               	andwf	(___xxtofl@arg+3)^0,w,c
  1402  000E02  6E18               	movwf	(??___xxtofl+3)^0,c
  1403  000E04  5015               	movf	??___xxtofl^0,w,c
  1404  000E06  1016               	iorwf	(??___xxtofl+1)^0,w,c
  1405  000E08  1017               	iorwf	(??___xxtofl+2)^0,w,c
  1406  000E0A  1018               	iorwf	(??___xxtofl+3)^0,w,c
  1407  000E0C  A4D8               	btfss	status,2,c
  1408  000E0E  EF0B  F007         	goto	u2681
  1409  000E12  EF0D  F007         	goto	u2680
  1410  000E16                     u2681:
  1411  000E16  EFEA  F006         	goto	l3245
  1412  000E1A                     u2680:
  1413  000E1A  EF15  F007         	goto	l3253
  1414  000E1E                     l3251:
  1415  000E1E  061A               	decf	___xxtofl@exp^0,f,c
  1416  000E20  90D8               	bcf	status,0,c
  1417  000E22  361B               	rlcf	___xxtofl@arg^0,f,c
  1418  000E24  361C               	rlcf	(___xxtofl@arg+1)^0,f,c
  1419  000E26  361D               	rlcf	(___xxtofl@arg+2)^0,f,c
  1420  000E28  361E               	rlcf	(___xxtofl@arg+3)^0,f,c
  1421  000E2A                     l3253:
  1422  000E2A  BE1D               	btfsc	(___xxtofl@arg+2)^0,7,c
  1423  000E2C  EF1A  F007         	goto	u2691
  1424  000E30  EF1C  F007         	goto	u2690
  1425  000E34                     u2691:
  1426  000E34  EF24  F007         	goto	l1205
  1427  000E38                     u2690:
  1428  000E38  0E02               	movlw	2
  1429  000E3A  601A               	cpfslt	___xxtofl@exp^0,c
  1430  000E3C  EF22  F007         	goto	u2701
  1431  000E40  EF24  F007         	goto	u2700
  1432  000E44                     u2701:
  1433  000E44  EF0F  F007         	goto	l3251
  1434  000E48                     u2700:
  1435  000E48                     l1205:
  1436  000E48  B01A               	btfsc	___xxtofl@exp^0,0,c
  1437  000E4A  EF29  F007         	goto	u2711
  1438  000E4E  EF2B  F007         	goto	u2710
  1439  000E52                     u2711:
  1440  000E52  EF2C  F007         	goto	l3259
  1441  000E56                     u2710:
  1442  000E56  9E1D               	bcf	(___xxtofl@arg+2)^0,7,c
  1443  000E58                     l3259:
  1444  000E58  90D8               	bcf	status,0,c
  1445  000E5A  321A               	rrcf	___xxtofl@exp^0,f,c
  1446  000E5C  C01A  F015         	movff	___xxtofl@exp,??___xxtofl
  1447  000E60  6A16               	clrf	(??___xxtofl+1)^0,c
  1448  000E62  6A17               	clrf	(??___xxtofl+2)^0,c
  1449  000E64  6A18               	clrf	(??___xxtofl+3)^0,c
  1450  000E66  C015  F018         	movff	??___xxtofl,??___xxtofl+3
  1451  000E6A  6A17               	clrf	(??___xxtofl+2)^0,c
  1452  000E6C  6A16               	clrf	(??___xxtofl+1)^0,c
  1453  000E6E  6A15               	clrf	??___xxtofl^0,c
  1454  000E70  5015               	movf	??___xxtofl^0,w,c
  1455  000E72  121B               	iorwf	___xxtofl@arg^0,f,c
  1456  000E74  5016               	movf	(??___xxtofl+1)^0,w,c
  1457  000E76  121C               	iorwf	(___xxtofl@arg+1)^0,f,c
  1458  000E78  5017               	movf	(??___xxtofl+2)^0,w,c
  1459  000E7A  121D               	iorwf	(___xxtofl@arg+2)^0,f,c
  1460  000E7C  5018               	movf	(??___xxtofl+3)^0,w,c
  1461  000E7E  121E               	iorwf	(___xxtofl@arg+3)^0,f,c
  1462  000E80  5019               	movf	___xxtofl@sign^0,w,c
  1463  000E82  B4D8               	btfsc	status,2,c
  1464  000E84  EF46  F007         	goto	u2721
  1465  000E88  EF48  F007         	goto	u2720
  1466  000E8C                     u2721:
  1467  000E8C  EF50  F007         	goto	l3269
  1468  000E90                     u2720:
  1469  000E90  BE14               	btfsc	(___xxtofl@val+3)^0,7,c
  1470  000E92  EF4F  F007         	goto	u2730
  1471  000E96  EF4D  F007         	goto	u2731
  1472  000E9A                     u2731:
  1473  000E9A  EF50  F007         	goto	l3269
  1474  000E9E                     u2730:
  1475  000E9E  8E1E               	bsf	(___xxtofl@arg+3)^0,7,c
  1476  000EA0                     l3269:
  1477  000EA0  C01B  F011         	movff	___xxtofl@arg,?___xxtofl
  1478  000EA4  C01C  F012         	movff	___xxtofl@arg+1,?___xxtofl+1
  1479  000EA8  C01D  F013         	movff	___xxtofl@arg+2,?___xxtofl+2
  1480  000EAC  C01E  F014         	movff	___xxtofl@arg+3,?___xxtofl+3
  1481  000EB0                     l1194:
  1482  000EB0  0012               	return		;funcret
  1483  000EB2                     __end_of___xxtofl:
  1484                           	opt callstack 0
  1485                           
  1486 ;; *************** function ___flmul *****************
  1487 ;; Defined at:
  1488 ;;		line 8 in file "D:\programs\pic\sources\c99\common\sprcmul.c"
  1489 ;; Parameters:    Size  Location     Type
  1490 ;;  b               4   30[COMRAM] unsigned char 
  1491 ;;  a               4   34[COMRAM] unsigned char 
  1492 ;; Auto vars:     Size  Location     Type
  1493 ;;  prod            4   49[COMRAM] struct .
  1494 ;;  grs             4   43[COMRAM] unsigned long 
  1495 ;;  temp            2   53[COMRAM] struct .
  1496 ;;  bexp            1   48[COMRAM] unsigned char 
  1497 ;;  aexp            1   47[COMRAM] unsigned char 
  1498 ;;  sign            1   42[COMRAM] unsigned char 
  1499 ;; Return value:  Size  Location     Type
  1500 ;;                  4   30[COMRAM] unsigned char 
  1501 ;; Registers used:
  1502 ;;		wreg, status,2, status,0, prodl, prodh
  1503 ;; Tracked objects:
  1504 ;;		On entry : 0/0
  1505 ;;		On exit  : 0/0
  1506 ;;		Unchanged: 0/0
  1507 ;; Data sizes:     COMRAM   BANK0   BANK1   BANK2   BANK3   BANK4   BANK5
  1508 ;;      Params:         8       0       0       0       0       0       0
  1509 ;;      Locals:        13       0       0       0       0       0       0
  1510 ;;      Temps:          4       0       0       0       0       0       0
  1511 ;;      Totals:        25       0       0       0       0       0       0
  1512 ;;Total ram usage:       25 bytes
  1513 ;; Hardware stack levels used:    1
  1514 ;; Hardware stack levels required when called:    6
  1515 ;; This function calls:
  1516 ;;		Nothing
  1517 ;; This function is called by:
  1518 ;;		_readTemperatureSensor
  1519 ;; This function uses a non-reentrant model
  1520 ;;
  1521                           
  1522                           	psect	text5
  1523  000538                     __ptext5:
  1524                           	opt callstack 0
  1525  000538                     ___flmul:
  1526                           	opt callstack 23
  1527  000538  5022               	movf	(___flmul@b+3)^0,w,c
  1528  00053A  0B80               	andlw	128
  1529  00053C  6E2B               	movwf	___flmul@sign^0,c
  1530  00053E  5022               	movf	(___flmul@b+3)^0,w,c
  1531  000540  2422               	addwf	(___flmul@b+3)^0,w,c
  1532  000542  6E31               	movwf	___flmul@bexp^0,c
  1533  000544  AE21               	btfss	(___flmul@b+2)^0,7,c
  1534  000546  EFA7  F002         	goto	u2451
  1535  00054A  EFA9  F002         	goto	u2450
  1536  00054E                     u2451:
  1537  00054E  EFAA  F002         	goto	l3103
  1538  000552                     u2450:
  1539  000552  8031               	bsf	___flmul@bexp^0,0,c
  1540  000554                     l3103:
  1541  000554  5031               	movf	___flmul@bexp^0,w,c
  1542  000556  B4D8               	btfsc	status,2,c
  1543  000558  EFB0  F002         	goto	u2461
  1544  00055C  EFB2  F002         	goto	u2460
  1545  000560                     u2461:
  1546  000560  EFC5  F002         	goto	l3111
  1547  000564                     u2460:
  1548  000564  2831               	incf	___flmul@bexp^0,w,c
  1549  000566  A4D8               	btfss	status,2,c
  1550  000568  EFB8  F002         	goto	u2471
  1551  00056C  EFBA  F002         	goto	u2470
  1552  000570                     u2471:
  1553  000570  EFC2  F002         	goto	l3109
  1554  000574                     u2470:
  1555  000574  0E00               	movlw	0
  1556  000576  6E1F               	movwf	___flmul@b^0,c
  1557  000578  0E00               	movlw	0
  1558  00057A  6E20               	movwf	(___flmul@b+1)^0,c
  1559  00057C  0E00               	movlw	0
  1560  00057E  6E21               	movwf	(___flmul@b+2)^0,c
  1561  000580  0E00               	movlw	0
  1562  000582  6E22               	movwf	(___flmul@b+3)^0,c
  1563  000584                     l3109:
  1564  000584  8E21               	bsf	(___flmul@b+2)^0,7,c
  1565  000586  EFCD  F002         	goto	l3113
  1566  00058A                     l3111:
  1567  00058A  0E00               	movlw	0
  1568  00058C  6E1F               	movwf	___flmul@b^0,c
  1569  00058E  0E00               	movlw	0
  1570  000590  6E20               	movwf	(___flmul@b+1)^0,c
  1571  000592  0E00               	movlw	0
  1572  000594  6E21               	movwf	(___flmul@b+2)^0,c
  1573  000596  0E00               	movlw	0
  1574  000598  6E22               	movwf	(___flmul@b+3)^0,c
  1575  00059A                     l3113:
  1576  00059A  5026               	movf	(___flmul@a+3)^0,w,c
  1577  00059C  0B80               	andlw	128
  1578  00059E  1A2B               	xorwf	___flmul@sign^0,f,c
  1579  0005A0  5026               	movf	(___flmul@a+3)^0,w,c
  1580  0005A2  2426               	addwf	(___flmul@a+3)^0,w,c
  1581  0005A4  6E30               	movwf	___flmul@aexp^0,c
  1582  0005A6  AE25               	btfss	(___flmul@a+2)^0,7,c
  1583  0005A8  EFD8  F002         	goto	u2481
  1584  0005AC  EFDA  F002         	goto	u2480
  1585  0005B0                     u2481:
  1586  0005B0  EFDB  F002         	goto	l3121
  1587  0005B4                     u2480:
  1588  0005B4  8030               	bsf	___flmul@aexp^0,0,c
  1589  0005B6                     l3121:
  1590  0005B6  5030               	movf	___flmul@aexp^0,w,c
  1591  0005B8  B4D8               	btfsc	status,2,c
  1592  0005BA  EFE1  F002         	goto	u2491
  1593  0005BE  EFE3  F002         	goto	u2490
  1594  0005C2                     u2491:
  1595  0005C2  EFF6  F002         	goto	l3129
  1596  0005C6                     u2490:
  1597  0005C6  2830               	incf	___flmul@aexp^0,w,c
  1598  0005C8  A4D8               	btfss	status,2,c
  1599  0005CA  EFE9  F002         	goto	u2501
  1600  0005CE  EFEB  F002         	goto	u2500
  1601  0005D2                     u2501:
  1602  0005D2  EFF3  F002         	goto	l3127
  1603  0005D6                     u2500:
  1604  0005D6  0E00               	movlw	0
  1605  0005D8  6E23               	movwf	___flmul@a^0,c
  1606  0005DA  0E00               	movlw	0
  1607  0005DC  6E24               	movwf	(___flmul@a+1)^0,c
  1608  0005DE  0E00               	movlw	0
  1609  0005E0  6E25               	movwf	(___flmul@a+2)^0,c
  1610  0005E2  0E00               	movlw	0
  1611  0005E4  6E26               	movwf	(___flmul@a+3)^0,c
  1612  0005E6                     l3127:
  1613  0005E6  8E25               	bsf	(___flmul@a+2)^0,7,c
  1614  0005E8  EFFE  F002         	goto	l1150
  1615  0005EC                     l3129:
  1616  0005EC  0E00               	movlw	0
  1617  0005EE  6E23               	movwf	___flmul@a^0,c
  1618  0005F0  0E00               	movlw	0
  1619  0005F2  6E24               	movwf	(___flmul@a+1)^0,c
  1620  0005F4  0E00               	movlw	0
  1621  0005F6  6E25               	movwf	(___flmul@a+2)^0,c
  1622  0005F8  0E00               	movlw	0
  1623  0005FA  6E26               	movwf	(___flmul@a+3)^0,c
  1624  0005FC                     l1150:
  1625  0005FC  5030               	movf	___flmul@aexp^0,w,c
  1626  0005FE  B4D8               	btfsc	status,2,c
  1627  000600  EF04  F003         	goto	u2511
  1628  000604  EF06  F003         	goto	u2510
  1629  000608                     u2511:
  1630  000608  EF0E  F003         	goto	l3133
  1631  00060C                     u2510:
  1632  00060C  5031               	movf	___flmul@bexp^0,w,c
  1633  00060E  A4D8               	btfss	status,2,c
  1634  000610  EF0C  F003         	goto	u2521
  1635  000614  EF0E  F003         	goto	u2520
  1636  000618                     u2521:
  1637  000618  EF18  F003         	goto	l3137
  1638  00061C                     u2520:
  1639  00061C                     l3133:
  1640  00061C  0E00               	movlw	0
  1641  00061E  6E1F               	movwf	?___flmul^0,c
  1642  000620  0E00               	movlw	0
  1643  000622  6E20               	movwf	(?___flmul+1)^0,c
  1644  000624  0E00               	movlw	0
  1645  000626  6E21               	movwf	(?___flmul+2)^0,c
  1646  000628  0E00               	movlw	0
  1647  00062A  6E22               	movwf	(?___flmul+3)^0,c
  1648  00062C  EFB0  F004         	goto	l1154
  1649  000630                     l3137:
  1650  000630  5025               	movf	(___flmul@a+2)^0,w,c
  1651  000632  021F               	mulwf	___flmul@b^0,c
  1652  000634  CFF3 F036          	movff	prodl,___flmul@temp
  1653  000638  CFF4 F037          	movff	prodh,___flmul@temp+1
  1654  00063C  5036               	movf	___flmul@temp^0,w,c
  1655  00063E  6E2C               	movwf	___flmul@grs^0,c
  1656  000640  6A2D               	clrf	(___flmul@grs+1)^0,c
  1657  000642  6A2E               	clrf	(___flmul@grs+2)^0,c
  1658  000644  6A2F               	clrf	(___flmul@grs+3)^0,c
  1659  000646  5037               	movf	(___flmul@temp+1)^0,w,c
  1660  000648  6E32               	movwf	___flmul@prod^0,c
  1661  00064A  6A33               	clrf	(___flmul@prod+1)^0,c
  1662  00064C  6A34               	clrf	(___flmul@prod+2)^0,c
  1663  00064E  6A35               	clrf	(___flmul@prod+3)^0,c
  1664  000650  5024               	movf	(___flmul@a+1)^0,w,c
  1665  000652  0220               	mulwf	(___flmul@b+1)^0,c
  1666  000654  CFF3 F036          	movff	prodl,___flmul@temp
  1667  000658  CFF4 F037          	movff	prodh,___flmul@temp+1
  1668  00065C  5036               	movf	___flmul@temp^0,w,c
  1669  00065E  262C               	addwf	___flmul@grs^0,f,c
  1670  000660  0E00               	movlw	0
  1671  000662  222D               	addwfc	(___flmul@grs+1)^0,f,c
  1672  000664  222E               	addwfc	(___flmul@grs+2)^0,f,c
  1673  000666  222F               	addwfc	(___flmul@grs+3)^0,f,c
  1674  000668  5037               	movf	(___flmul@temp+1)^0,w,c
  1675  00066A  2632               	addwf	___flmul@prod^0,f,c
  1676  00066C  0E00               	movlw	0
  1677  00066E  2233               	addwfc	(___flmul@prod+1)^0,f,c
  1678  000670  2234               	addwfc	(___flmul@prod+2)^0,f,c
  1679  000672  2235               	addwfc	(___flmul@prod+3)^0,f,c
  1680  000674  5023               	movf	___flmul@a^0,w,c
  1681  000676  0221               	mulwf	(___flmul@b+2)^0,c
  1682  000678  CFF3 F036          	movff	prodl,___flmul@temp
  1683  00067C  CFF4 F037          	movff	prodh,___flmul@temp+1
  1684  000680  5036               	movf	___flmul@temp^0,w,c
  1685  000682  262C               	addwf	___flmul@grs^0,f,c
  1686  000684  0E00               	movlw	0
  1687  000686  222D               	addwfc	(___flmul@grs+1)^0,f,c
  1688  000688  222E               	addwfc	(___flmul@grs+2)^0,f,c
  1689  00068A  222F               	addwfc	(___flmul@grs+3)^0,f,c
  1690  00068C  5037               	movf	(___flmul@temp+1)^0,w,c
  1691  00068E  2632               	addwf	___flmul@prod^0,f,c
  1692  000690  0E00               	movlw	0
  1693  000692  2233               	addwfc	(___flmul@prod+1)^0,f,c
  1694  000694  2234               	addwfc	(___flmul@prod+2)^0,f,c
  1695  000696  2235               	addwfc	(___flmul@prod+3)^0,f,c
  1696  000698  C02E  F02F         	movff	___flmul@grs+2,___flmul@grs+3
  1697  00069C  C02D  F02E         	movff	___flmul@grs+1,___flmul@grs+2
  1698  0006A0  C02C  F02D         	movff	___flmul@grs,___flmul@grs+1
  1699  0006A4  6A2C               	clrf	___flmul@grs^0,c
  1700  0006A6  5023               	movf	___flmul@a^0,w,c
  1701  0006A8  0220               	mulwf	(___flmul@b+1)^0,c
  1702  0006AA  CFF3 F036          	movff	prodl,___flmul@temp
  1703  0006AE  CFF4 F037          	movff	prodh,___flmul@temp+1
  1704  0006B2  5036               	movf	___flmul@temp^0,w,c
  1705  0006B4  262C               	addwf	___flmul@grs^0,f,c
  1706  0006B6  5037               	movf	(___flmul@temp+1)^0,w,c
  1707  0006B8  222D               	addwfc	(___flmul@grs+1)^0,f,c
  1708  0006BA  0E00               	movlw	0
  1709  0006BC  222E               	addwfc	(___flmul@grs+2)^0,f,c
  1710  0006BE  0E00               	movlw	0
  1711  0006C0  222F               	addwfc	(___flmul@grs+3)^0,f,c
  1712  0006C2  5024               	movf	(___flmul@a+1)^0,w,c
  1713  0006C4  021F               	mulwf	___flmul@b^0,c
  1714  0006C6  CFF3 F036          	movff	prodl,___flmul@temp
  1715  0006CA  CFF4 F037          	movff	prodh,___flmul@temp+1
  1716  0006CE  5036               	movf	___flmul@temp^0,w,c
  1717  0006D0  262C               	addwf	___flmul@grs^0,f,c
  1718  0006D2  5037               	movf	(___flmul@temp+1)^0,w,c
  1719  0006D4  222D               	addwfc	(___flmul@grs+1)^0,f,c
  1720  0006D6  0E00               	movlw	0
  1721  0006D8  222E               	addwfc	(___flmul@grs+2)^0,f,c
  1722  0006DA  0E00               	movlw	0
  1723  0006DC  222F               	addwfc	(___flmul@grs+3)^0,f,c
  1724  0006DE  C02E  F02F         	movff	___flmul@grs+2,___flmul@grs+3
  1725  0006E2  C02D  F02E         	movff	___flmul@grs+1,___flmul@grs+2
  1726  0006E6  C02C  F02D         	movff	___flmul@grs,___flmul@grs+1
  1727  0006EA  6A2C               	clrf	___flmul@grs^0,c
  1728  0006EC  5023               	movf	___flmul@a^0,w,c
  1729  0006EE  021F               	mulwf	___flmul@b^0,c
  1730  0006F0  CFF3 F036          	movff	prodl,___flmul@temp
  1731  0006F4  CFF4 F037          	movff	prodh,___flmul@temp+1
  1732  0006F8  5036               	movf	___flmul@temp^0,w,c
  1733  0006FA  262C               	addwf	___flmul@grs^0,f,c
  1734  0006FC  5037               	movf	(___flmul@temp+1)^0,w,c
  1735  0006FE  222D               	addwfc	(___flmul@grs+1)^0,f,c
  1736  000700  0E00               	movlw	0
  1737  000702  222E               	addwfc	(___flmul@grs+2)^0,f,c
  1738  000704  0E00               	movlw	0
  1739  000706  222F               	addwfc	(___flmul@grs+3)^0,f,c
  1740  000708  5025               	movf	(___flmul@a+2)^0,w,c
  1741  00070A  0220               	mulwf	(___flmul@b+1)^0,c
  1742  00070C  CFF3 F036          	movff	prodl,___flmul@temp
  1743  000710  CFF4 F037          	movff	prodh,___flmul@temp+1
  1744  000714  5036               	movf	___flmul@temp^0,w,c
  1745  000716  2632               	addwf	___flmul@prod^0,f,c
  1746  000718  5037               	movf	(___flmul@temp+1)^0,w,c
  1747  00071A  2233               	addwfc	(___flmul@prod+1)^0,f,c
  1748  00071C  0E00               	movlw	0
  1749  00071E  2234               	addwfc	(___flmul@prod+2)^0,f,c
  1750  000720  0E00               	movlw	0
  1751  000722  2235               	addwfc	(___flmul@prod+3)^0,f,c
  1752  000724  5024               	movf	(___flmul@a+1)^0,w,c
  1753  000726  0221               	mulwf	(___flmul@b+2)^0,c
  1754  000728  CFF3 F036          	movff	prodl,___flmul@temp
  1755  00072C  CFF4 F037          	movff	prodh,___flmul@temp+1
  1756  000730  5036               	movf	___flmul@temp^0,w,c
  1757  000732  2632               	addwf	___flmul@prod^0,f,c
  1758  000734  5037               	movf	(___flmul@temp+1)^0,w,c
  1759  000736  2233               	addwfc	(___flmul@prod+1)^0,f,c
  1760  000738  0E00               	movlw	0
  1761  00073A  2234               	addwfc	(___flmul@prod+2)^0,f,c
  1762  00073C  0E00               	movlw	0
  1763  00073E  2235               	addwfc	(___flmul@prod+3)^0,f,c
  1764  000740  5025               	movf	(___flmul@a+2)^0,w,c
  1765  000742  0221               	mulwf	(___flmul@b+2)^0,c
  1766  000744  CFF3 F036          	movff	prodl,___flmul@temp
  1767  000748  CFF4 F037          	movff	prodh,___flmul@temp+1
  1768  00074C  5036               	movf	___flmul@temp^0,w,c
  1769  00074E  6E27               	movwf	??___flmul^0,c
  1770  000750  5037               	movf	(___flmul@temp+1)^0,w,c
  1771  000752  6E28               	movwf	(??___flmul+1)^0,c
  1772  000754  6A29               	clrf	(??___flmul+2)^0,c
  1773  000756  6A2A               	clrf	(??___flmul+3)^0,c
  1774  000758  C029  F02A         	movff	??___flmul+2,??___flmul+3
  1775  00075C  C028  F029         	movff	??___flmul+1,??___flmul+2
  1776  000760  C027  F028         	movff	??___flmul,??___flmul+1
  1777  000764  6A27               	clrf	??___flmul^0,c
  1778  000766  5027               	movf	??___flmul^0,w,c
  1779  000768  2632               	addwf	___flmul@prod^0,f,c
  1780  00076A  5028               	movf	(??___flmul+1)^0,w,c
  1781  00076C  2233               	addwfc	(___flmul@prod+1)^0,f,c
  1782  00076E  5029               	movf	(??___flmul+2)^0,w,c
  1783  000770  2234               	addwfc	(___flmul@prod+2)^0,f,c
  1784  000772  502A               	movf	(??___flmul+3)^0,w,c
  1785  000774  2235               	addwfc	(___flmul@prod+3)^0,f,c
  1786  000776  C02C  F027         	movff	___flmul@grs,??___flmul
  1787  00077A  C02D  F028         	movff	___flmul@grs+1,??___flmul+1
  1788  00077E  C02E  F029         	movff	___flmul@grs+2,??___flmul+2
  1789  000782  C02F  F02A         	movff	___flmul@grs+3,??___flmul+3
  1790  000786  0E19               	movlw	25
  1791  000788  EFCB  F003         	goto	u2530
  1792  00078C                     u2535:
  1793  00078C  90D8               	bcf	status,0,c
  1794  00078E  322A               	rrcf	(??___flmul+3)^0,f,c
  1795  000790  3229               	rrcf	(??___flmul+2)^0,f,c
  1796  000792  3228               	rrcf	(??___flmul+1)^0,f,c
  1797  000794  3227               	rrcf	??___flmul^0,f,c
  1798  000796                     u2530:
  1799  000796  2EE8               	decfsz	wreg,f,c
  1800  000798  EFC6  F003         	goto	u2535
  1801  00079C  5027               	movf	??___flmul^0,w,c
  1802  00079E  2632               	addwf	___flmul@prod^0,f,c
  1803  0007A0  5028               	movf	(??___flmul+1)^0,w,c
  1804  0007A2  2233               	addwfc	(___flmul@prod+1)^0,f,c
  1805  0007A4  5029               	movf	(??___flmul+2)^0,w,c
  1806  0007A6  2234               	addwfc	(___flmul@prod+2)^0,f,c
  1807  0007A8  502A               	movf	(??___flmul+3)^0,w,c
  1808  0007AA  2235               	addwfc	(___flmul@prod+3)^0,f,c
  1809  0007AC  C02E  F02F         	movff	___flmul@grs+2,___flmul@grs+3
  1810  0007B0  C02D  F02E         	movff	___flmul@grs+1,___flmul@grs+2
  1811  0007B4  C02C  F02D         	movff	___flmul@grs,___flmul@grs+1
  1812  0007B8  6A2C               	clrf	___flmul@grs^0,c
  1813  0007BA  5030               	movf	___flmul@aexp^0,w,c
  1814  0007BC  C031  F027         	movff	___flmul@bexp,??___flmul
  1815  0007C0  6A28               	clrf	(??___flmul+1)^0,c
  1816  0007C2  2627               	addwf	??___flmul^0,f,c
  1817  0007C4  0E00               	movlw	0
  1818  0007C6  2228               	addwfc	(??___flmul+1)^0,f,c
  1819  0007C8  0E82               	movlw	130
  1820  0007CA  2427               	addwf	??___flmul^0,w,c
  1821  0007CC  6E36               	movwf	___flmul@temp^0,c
  1822  0007CE  0EFF               	movlw	255
  1823  0007D0  2028               	addwfc	(??___flmul+1)^0,w,c
  1824  0007D2  6E37               	movwf	(___flmul@temp+1)^0,c
  1825  0007D4  EF01  F004         	goto	l3185
  1826  0007D8                     l3179:
  1827  0007D8  90D8               	bcf	status,0,c
  1828  0007DA  3632               	rlcf	___flmul@prod^0,f,c
  1829  0007DC  3633               	rlcf	(___flmul@prod+1)^0,f,c
  1830  0007DE  3634               	rlcf	(___flmul@prod+2)^0,f,c
  1831  0007E0  3635               	rlcf	(___flmul@prod+3)^0,f,c
  1832  0007E2  AE2F               	btfss	(___flmul@grs+3)^0,7,c
  1833  0007E4  EFF6  F003         	goto	u2541
  1834  0007E8  EFF8  F003         	goto	u2540
  1835  0007EC                     u2541:
  1836  0007EC  EFF9  F003         	goto	l1157
  1837  0007F0                     u2540:
  1838  0007F0  8032               	bsf	___flmul@prod^0,0,c
  1839  0007F2                     l1157:
  1840  0007F2  90D8               	bcf	status,0,c
  1841  0007F4  362C               	rlcf	___flmul@grs^0,f,c
  1842  0007F6  362D               	rlcf	(___flmul@grs+1)^0,f,c
  1843  0007F8  362E               	rlcf	(___flmul@grs+2)^0,f,c
  1844  0007FA  362F               	rlcf	(___flmul@grs+3)^0,f,c
  1845  0007FC  0636               	decf	___flmul@temp^0,f,c
  1846  0007FE  A0D8               	btfss	status,0,c
  1847  000800  0637               	decf	(___flmul@temp+1)^0,f,c
  1848  000802                     l3185:
  1849  000802  AE34               	btfss	(___flmul@prod+2)^0,7,c
  1850  000804  EF06  F004         	goto	u2551
  1851  000808  EF08  F004         	goto	u2550
  1852  00080C                     u2551:
  1853  00080C  EFEC  F003         	goto	l3179
  1854  000810                     u2550:
  1855  000810  0E00               	movlw	0
  1856  000812  6E30               	movwf	___flmul@aexp^0,c
  1857  000814  AE2F               	btfss	(___flmul@grs+3)^0,7,c
  1858  000816  EF0F  F004         	goto	u2561
  1859  00081A  EF11  F004         	goto	u2560
  1860  00081E                     u2561:
  1861  00081E  EF35  F004         	goto	l1159
  1862  000822                     u2560:
  1863  000822  0EFF               	movlw	255
  1864  000824  142C               	andwf	___flmul@grs^0,w,c
  1865  000826  6E27               	movwf	??___flmul^0,c
  1866  000828  0EFF               	movlw	255
  1867  00082A  142D               	andwf	(___flmul@grs+1)^0,w,c
  1868  00082C  6E28               	movwf	(??___flmul+1)^0,c
  1869  00082E  0EFF               	movlw	255
  1870  000830  142E               	andwf	(___flmul@grs+2)^0,w,c
  1871  000832  6E29               	movwf	(??___flmul+2)^0,c
  1872  000834  0E7F               	movlw	127
  1873  000836  142F               	andwf	(___flmul@grs+3)^0,w,c
  1874  000838  6E2A               	movwf	(??___flmul+3)^0,c
  1875  00083A  5027               	movf	??___flmul^0,w,c
  1876  00083C  1028               	iorwf	(??___flmul+1)^0,w,c
  1877  00083E  1029               	iorwf	(??___flmul+2)^0,w,c
  1878  000840  102A               	iorwf	(??___flmul+3)^0,w,c
  1879  000842  B4D8               	btfsc	status,2,c
  1880  000844  EF26  F004         	goto	u2571
  1881  000848  EF28  F004         	goto	u2570
  1882  00084C                     u2571:
  1883  00084C  EF2C  F004         	goto	l1160
  1884  000850                     u2570:
  1885  000850                     l3193:
  1886  000850  0E01               	movlw	1
  1887  000852  6E30               	movwf	___flmul@aexp^0,c
  1888  000854  EF35  F004         	goto	l1159
  1889  000858                     l1160:
  1890  000858  A032               	btfss	___flmul@prod^0,0,c
  1891  00085A  EF31  F004         	goto	u2581
  1892  00085E  EF33  F004         	goto	u2580
  1893  000862                     u2581:
  1894  000862  EF35  F004         	goto	l1159
  1895  000866                     u2580:
  1896  000866  EF28  F004         	goto	l3193
  1897  00086A                     l1159:
  1898  00086A  5030               	movf	___flmul@aexp^0,w,c
  1899  00086C  B4D8               	btfsc	status,2,c
  1900  00086E  EF3B  F004         	goto	u2591
  1901  000872  EF3D  F004         	goto	u2590
  1902  000876                     u2591:
  1903  000876  EF61  F004         	goto	l3205
  1904  00087A                     u2590:
  1905  00087A  0E01               	movlw	1
  1906  00087C  2632               	addwf	___flmul@prod^0,f,c
  1907  00087E  0E00               	movlw	0
  1908  000880  2233               	addwfc	(___flmul@prod+1)^0,f,c
  1909  000882  2234               	addwfc	(___flmul@prod+2)^0,f,c
  1910  000884  2235               	addwfc	(___flmul@prod+3)^0,f,c
  1911  000886  A035               	btfss	(___flmul@prod+3)^0,0,c
  1912  000888  EF48  F004         	goto	u2601
  1913  00088C  EF4A  F004         	goto	u2600
  1914  000890                     u2601:
  1915  000890  EF61  F004         	goto	l3205
  1916  000894                     u2600:
  1917  000894  C032  F027         	movff	___flmul@prod,??___flmul
  1918  000898  C033  F028         	movff	___flmul@prod+1,??___flmul+1
  1919  00089C  C034  F029         	movff	___flmul@prod+2,??___flmul+2
  1920  0008A0  C035  F02A         	movff	___flmul@prod+3,??___flmul+3
  1921  0008A4  342A               	rlcf	(??___flmul+3)^0,w,c
  1922  0008A6  322A               	rrcf	(??___flmul+3)^0,f,c
  1923  0008A8  3229               	rrcf	(??___flmul+2)^0,f,c
  1924  0008AA  3228               	rrcf	(??___flmul+1)^0,f,c
  1925  0008AC  3227               	rrcf	??___flmul^0,f,c
  1926  0008AE  C027  F032         	movff	??___flmul,___flmul@prod
  1927  0008B2  C028  F033         	movff	??___flmul+1,___flmul@prod+1
  1928  0008B6  C029  F034         	movff	??___flmul+2,___flmul@prod+2
  1929  0008BA  C02A  F035         	movff	??___flmul+3,___flmul@prod+3
  1930  0008BE  4A36               	infsnz	___flmul@temp^0,f,c
  1931  0008C0  2A37               	incf	(___flmul@temp+1)^0,f,c
  1932  0008C2                     l3205:
  1933  0008C2  BE37               	btfsc	(___flmul@temp+1)^0,7,c
  1934  0008C4  EF6C  F004         	goto	u2611
  1935  0008C8  5037               	movf	(___flmul@temp+1)^0,w,c
  1936  0008CA  E108               	bnz	u2610
  1937  0008CC  2836               	incf	___flmul@temp^0,w,c
  1938  0008CE  A0D8               	btfss	status,0,c
  1939  0008D0  EF6C  F004         	goto	u2611
  1940  0008D4  EF6E  F004         	goto	u2610
  1941  0008D8                     u2611:
  1942  0008D8  EF78  F004         	goto	l3209
  1943  0008DC                     u2610:
  1944  0008DC  0E00               	movlw	0
  1945  0008DE  6E32               	movwf	___flmul@prod^0,c
  1946  0008E0  0E00               	movlw	0
  1947  0008E2  6E33               	movwf	(___flmul@prod+1)^0,c
  1948  0008E4  0E80               	movlw	128
  1949  0008E6  6E34               	movwf	(___flmul@prod+2)^0,c
  1950  0008E8  0E7F               	movlw	127
  1951  0008EA  6E35               	movwf	(___flmul@prod+3)^0,c
  1952  0008EC  EFA6  F004         	goto	l3221
  1953  0008F0                     l3209:
  1954  0008F0  BE37               	btfsc	(___flmul@temp+1)^0,7,c
  1955  0008F2  EF85  F004         	goto	u2620
  1956  0008F6  5037               	movf	(___flmul@temp+1)^0,w,c
  1957  0008F8  E106               	bnz	u2621
  1958  0008FA  0436               	decf	___flmul@temp^0,w,c
  1959  0008FC  B0D8               	btfsc	status,0,c
  1960  0008FE  EF83  F004         	goto	u2621
  1961  000902  EF85  F004         	goto	u2620
  1962  000906                     u2621:
  1963  000906  EF91  F004         	goto	l1167
  1964  00090A                     u2620:
  1965  00090A  0E00               	movlw	0
  1966  00090C  6E32               	movwf	___flmul@prod^0,c
  1967  00090E  0E00               	movlw	0
  1968  000910  6E33               	movwf	(___flmul@prod+1)^0,c
  1969  000912  0E00               	movlw	0
  1970  000914  6E34               	movwf	(___flmul@prod+2)^0,c
  1971  000916  0E00               	movlw	0
  1972  000918  6E35               	movwf	(___flmul@prod+3)^0,c
  1973  00091A  0E00               	movlw	0
  1974  00091C  6E2B               	movwf	___flmul@sign^0,c
  1975  00091E  EFA6  F004         	goto	l3221
  1976  000922                     l1167:
  1977  000922  C036  F031         	movff	___flmul@temp,___flmul@bexp
  1978  000926  0EFF               	movlw	255
  1979  000928  1632               	andwf	___flmul@prod^0,f,c
  1980  00092A  0EFF               	movlw	255
  1981  00092C  1633               	andwf	(___flmul@prod+1)^0,f,c
  1982  00092E  0E7F               	movlw	127
  1983  000930  1634               	andwf	(___flmul@prod+2)^0,f,c
  1984  000932  0E00               	movlw	0
  1985  000934  1635               	andwf	(___flmul@prod+3)^0,f,c
  1986  000936  A031               	btfss	___flmul@bexp^0,0,c
  1987  000938  EFA0  F004         	goto	u2631
  1988  00093C  EFA2  F004         	goto	u2630
  1989  000940                     u2631:
  1990  000940  EFA3  F004         	goto	l3219
  1991  000944                     u2630:
  1992  000944  8E34               	bsf	(___flmul@prod+2)^0,7,c
  1993  000946                     l3219:
  1994  000946  90D8               	bcf	status,0,c
  1995  000948  3031               	rrcf	___flmul@bexp^0,w,c
  1996  00094A  6E35               	movwf	(___flmul@prod+3)^0,c
  1997  00094C                     l3221:
  1998  00094C  502B               	movf	___flmul@sign^0,w,c
  1999  00094E  1235               	iorwf	(___flmul@prod+3)^0,f,c
  2000  000950  C032  F01F         	movff	___flmul@prod,?___flmul
  2001  000954  C033  F020         	movff	___flmul@prod+1,?___flmul+1
  2002  000958  C034  F021         	movff	___flmul@prod+2,?___flmul+2
  2003  00095C  C035  F022         	movff	___flmul@prod+3,?___flmul+3
  2004  000960                     l1154:
  2005  000960  0012               	return		;funcret
  2006  000962                     __end_of___flmul:
  2007                           	opt callstack 0
  2008                           
  2009 ;; *************** function ___fldiv *****************
  2010 ;; Defined at:
  2011 ;;		line 11 in file "D:\programs\pic\sources\c99\common\sprcdiv.c"
  2012 ;; Parameters:    Size  Location     Type
  2013 ;;  b               4    0[BANK0 ] unsigned char 
  2014 ;;  a               4    4[BANK0 ] unsigned char 
  2015 ;; Auto vars:     Size  Location     Type
  2016 ;;  grs             4   15[BANK0 ] unsigned long 
  2017 ;;  rem             4    8[BANK0 ] unsigned long 
  2018 ;;  new_exp         2   13[BANK0 ] short 
  2019 ;;  aexp            1   20[BANK0 ] unsigned char 
  2020 ;;  bexp            1   19[BANK0 ] unsigned char 
  2021 ;;  sign            1   12[BANK0 ] unsigned char 
  2022 ;; Return value:  Size  Location     Type
  2023 ;;                  4    0[BANK0 ] unsigned char 
  2024 ;; Registers used:
  2025 ;;		wreg, status,2, status,0
  2026 ;; Tracked objects:
  2027 ;;		On entry : 0/0
  2028 ;;		On exit  : 0/0
  2029 ;;		Unchanged: 0/0
  2030 ;; Data sizes:     COMRAM   BANK0   BANK1   BANK2   BANK3   BANK4   BANK5
  2031 ;;      Params:         0       8       0       0       0       0       0
  2032 ;;      Locals:         0      13       0       0       0       0       0
  2033 ;;      Temps:          4       0       0       0       0       0       0
  2034 ;;      Totals:         4      21       0       0       0       0       0
  2035 ;;Total ram usage:       25 bytes
  2036 ;; Hardware stack levels used:    1
  2037 ;; Hardware stack levels required when called:    6
  2038 ;; This function calls:
  2039 ;;		Nothing
  2040 ;; This function is called by:
  2041 ;;		_readTemperatureSensor
  2042 ;; This function uses a non-reentrant model
  2043 ;;
  2044                           
  2045                           	psect	text6
  2046  000962                     __ptext6:
  2047                           	opt callstack 0
  2048  000962                     ___fldiv:
  2049                           	opt callstack 23
  2050  000962  0100               	movlb	0	; () banked
  2051  000964  5163               	movf	(___fldiv@b+3)& (0+255),w,b
  2052  000966  0B80               	andlw	128
  2053  000968  6F6C               	movwf	___fldiv@sign& (0+255),b
  2054  00096A  5163               	movf	(___fldiv@b+3)& (0+255),w,b
  2055  00096C  2563               	addwf	(___fldiv@b+3)& (0+255),w,b
  2056  00096E  6F73               	movwf	___fldiv@bexp& (0+255),b
  2057  000970                     
  2058                           ; BSR set to: 0
  2059  000970  AF62               	btfss	(___fldiv@b+2)& (0+255),7,b
  2060  000972  EFBD  F004         	goto	u2961
  2061  000976  EFBF  F004         	goto	u2960
  2062  00097A                     u2961:
  2063  00097A  EFC0  F004         	goto	l3563
  2064  00097E                     u2960:
  2065  00097E                     
  2066                           ; BSR set to: 0
  2067  00097E  8173               	bsf	___fldiv@bexp& (0+255),0,b
  2068  000980                     l3563:
  2069                           
  2070                           ; BSR set to: 0
  2071  000980  5173               	movf	___fldiv@bexp& (0+255),w,b
  2072  000982  B4D8               	btfsc	status,2,c
  2073  000984  EFC6  F004         	goto	u2971
  2074  000988  EFC8  F004         	goto	u2970
  2075  00098C                     u2971:
  2076  00098C  EFDD  F004         	goto	l3573
  2077  000990                     u2970:
  2078  000990                     
  2079                           ; BSR set to: 0
  2080  000990  2973               	incf	___fldiv@bexp& (0+255),w,b
  2081  000992  A4D8               	btfss	status,2,c
  2082  000994  EFCE  F004         	goto	u2981
  2083  000998  EFD0  F004         	goto	u2980
  2084  00099C                     u2981:
  2085  00099C  EFD8  F004         	goto	l3569
  2086  0009A0                     u2980:
  2087  0009A0                     
  2088                           ; BSR set to: 0
  2089  0009A0  0E00               	movlw	0
  2090  0009A2  6F60               	movwf	___fldiv@b& (0+255),b
  2091  0009A4  0E00               	movlw	0
  2092  0009A6  6F61               	movwf	(___fldiv@b+1)& (0+255),b
  2093  0009A8  0E00               	movlw	0
  2094  0009AA  6F62               	movwf	(___fldiv@b+2)& (0+255),b
  2095  0009AC  0E00               	movlw	0
  2096  0009AE  6F63               	movwf	(___fldiv@b+3)& (0+255),b
  2097  0009B0                     l3569:
  2098                           
  2099                           ; BSR set to: 0
  2100  0009B0  8F62               	bsf	(___fldiv@b+2)& (0+255),7,b
  2101  0009B2                     
  2102                           ; BSR set to: 0
  2103  0009B2  0E00               	movlw	0
  2104  0009B4  6F63               	movwf	(___fldiv@b+3)& (0+255),b
  2105  0009B6  EFE5  F004         	goto	l3575
  2106  0009BA                     l3573:
  2107                           
  2108                           ; BSR set to: 0
  2109  0009BA  0E00               	movlw	0
  2110  0009BC  6F60               	movwf	___fldiv@b& (0+255),b
  2111  0009BE  0E00               	movlw	0
  2112  0009C0  6F61               	movwf	(___fldiv@b+1)& (0+255),b
  2113  0009C2  0E00               	movlw	0
  2114  0009C4  6F62               	movwf	(___fldiv@b+2)& (0+255),b
  2115  0009C6  0E00               	movlw	0
  2116  0009C8  6F63               	movwf	(___fldiv@b+3)& (0+255),b
  2117  0009CA                     l3575:
  2118                           
  2119                           ; BSR set to: 0
  2120  0009CA  5167               	movf	(___fldiv@a+3)& (0+255),w,b
  2121  0009CC  0B80               	andlw	128
  2122  0009CE  1B6C               	xorwf	___fldiv@sign& (0+255),f,b
  2123  0009D0                     
  2124                           ; BSR set to: 0
  2125  0009D0  5167               	movf	(___fldiv@a+3)& (0+255),w,b
  2126  0009D2  2567               	addwf	(___fldiv@a+3)& (0+255),w,b
  2127  0009D4  6F74               	movwf	___fldiv@aexp& (0+255),b
  2128  0009D6                     
  2129                           ; BSR set to: 0
  2130  0009D6  AF66               	btfss	(___fldiv@a+2)& (0+255),7,b
  2131  0009D8  EFF0  F004         	goto	u2991
  2132  0009DC  EFF2  F004         	goto	u2990
  2133  0009E0                     u2991:
  2134  0009E0  EFF3  F004         	goto	l3583
  2135  0009E4                     u2990:
  2136  0009E4                     
  2137                           ; BSR set to: 0
  2138  0009E4  8174               	bsf	___fldiv@aexp& (0+255),0,b
  2139  0009E6                     l3583:
  2140                           
  2141                           ; BSR set to: 0
  2142  0009E6  5174               	movf	___fldiv@aexp& (0+255),w,b
  2143  0009E8  B4D8               	btfsc	status,2,c
  2144  0009EA  EFF9  F004         	goto	u3001
  2145  0009EE  EFFB  F004         	goto	u3000
  2146  0009F2                     u3001:
  2147  0009F2  EF10  F005         	goto	l3593
  2148  0009F6                     u3000:
  2149  0009F6                     
  2150                           ; BSR set to: 0
  2151  0009F6  2974               	incf	___fldiv@aexp& (0+255),w,b
  2152  0009F8  A4D8               	btfss	status,2,c
  2153  0009FA  EF01  F005         	goto	u3011
  2154  0009FE  EF03  F005         	goto	u3010
  2155  000A02                     u3011:
  2156  000A02  EF0B  F005         	goto	l3589
  2157  000A06                     u3010:
  2158  000A06                     
  2159                           ; BSR set to: 0
  2160  000A06  0E00               	movlw	0
  2161  000A08  6F64               	movwf	___fldiv@a& (0+255),b
  2162  000A0A  0E00               	movlw	0
  2163  000A0C  6F65               	movwf	(___fldiv@a+1)& (0+255),b
  2164  000A0E  0E00               	movlw	0
  2165  000A10  6F66               	movwf	(___fldiv@a+2)& (0+255),b
  2166  000A12  0E00               	movlw	0
  2167  000A14  6F67               	movwf	(___fldiv@a+3)& (0+255),b
  2168  000A16                     l3589:
  2169                           
  2170                           ; BSR set to: 0
  2171  000A16  8F66               	bsf	(___fldiv@a+2)& (0+255),7,b
  2172  000A18                     
  2173                           ; BSR set to: 0
  2174  000A18  0E00               	movlw	0
  2175  000A1A  6F67               	movwf	(___fldiv@a+3)& (0+255),b
  2176  000A1C  EF18  F005         	goto	l3595
  2177  000A20                     l3593:
  2178                           
  2179                           ; BSR set to: 0
  2180  000A20  0E00               	movlw	0
  2181  000A22  6F64               	movwf	___fldiv@a& (0+255),b
  2182  000A24  0E00               	movlw	0
  2183  000A26  6F65               	movwf	(___fldiv@a+1)& (0+255),b
  2184  000A28  0E00               	movlw	0
  2185  000A2A  6F66               	movwf	(___fldiv@a+2)& (0+255),b
  2186  000A2C  0E00               	movlw	0
  2187  000A2E  6F67               	movwf	(___fldiv@a+3)& (0+255),b
  2188  000A30                     l3595:
  2189                           
  2190                           ; BSR set to: 0
  2191  000A30  5164               	movf	___fldiv@a& (0+255),w,b
  2192  000A32  1165               	iorwf	(___fldiv@a+1)& (0+255),w,b
  2193  000A34  1166               	iorwf	(___fldiv@a+2)& (0+255),w,b
  2194  000A36  1167               	iorwf	(___fldiv@a+3)& (0+255),w,b
  2195  000A38  A4D8               	btfss	status,2,c
  2196  000A3A  EF21  F005         	goto	u3021
  2197  000A3E  EF23  F005         	goto	u3020
  2198  000A42                     u3021:
  2199  000A42  EF3B  F005         	goto	l3607
  2200  000A46                     u3020:
  2201  000A46                     
  2202                           ; BSR set to: 0
  2203  000A46  0E00               	movlw	0
  2204  000A48  6F60               	movwf	___fldiv@b& (0+255),b
  2205  000A4A  0E00               	movlw	0
  2206  000A4C  6F61               	movwf	(___fldiv@b+1)& (0+255),b
  2207  000A4E  0E00               	movlw	0
  2208  000A50  6F62               	movwf	(___fldiv@b+2)& (0+255),b
  2209  000A52  0E00               	movlw	0
  2210  000A54  6F63               	movwf	(___fldiv@b+3)& (0+255),b
  2211  000A56                     
  2212                           ; BSR set to: 0
  2213  000A56  0E80               	movlw	128
  2214  000A58  1362               	iorwf	(___fldiv@b+2)& (0+255),f,b
  2215  000A5A  0E7F               	movlw	127
  2216  000A5C  1363               	iorwf	(___fldiv@b+3)& (0+255),f,b
  2217  000A5E                     l3601:
  2218                           
  2219                           ; BSR set to: 0
  2220  000A5E  516C               	movf	___fldiv@sign& (0+255),w,b
  2221  000A60  1363               	iorwf	(___fldiv@b+3)& (0+255),f,b
  2222  000A62                     
  2223                           ; BSR set to: 0
  2224  000A62  C060  F060         	movff	___fldiv@b,?___fldiv
  2225  000A66  C061  F061         	movff	___fldiv@b+1,?___fldiv+1
  2226  000A6A  C062  F062         	movff	___fldiv@b+2,?___fldiv+2
  2227  000A6E  C063  F063         	movff	___fldiv@b+3,?___fldiv+3
  2228  000A72  EF7E  F006         	goto	l1118
  2229  000A76                     l3607:
  2230                           
  2231                           ; BSR set to: 0
  2232  000A76  5173               	movf	___fldiv@bexp& (0+255),w,b
  2233  000A78  A4D8               	btfss	status,2,c
  2234  000A7A  EF41  F005         	goto	u3031
  2235  000A7E  EF43  F005         	goto	u3030
  2236  000A82                     u3031:
  2237  000A82  EF4D  F005         	goto	l3615
  2238  000A86                     u3030:
  2239  000A86                     
  2240                           ; BSR set to: 0
  2241  000A86  0E00               	movlw	0
  2242  000A88  6F60               	movwf	?___fldiv& (0+255),b
  2243  000A8A  0E00               	movlw	0
  2244  000A8C  6F61               	movwf	(?___fldiv+1)& (0+255),b
  2245  000A8E  0E00               	movlw	0
  2246  000A90  6F62               	movwf	(?___fldiv+2)& (0+255),b
  2247  000A92  0E00               	movlw	0
  2248  000A94  6F63               	movwf	(?___fldiv+3)& (0+255),b
  2249  000A96  EF7E  F006         	goto	l1118
  2250  000A9A                     l3615:
  2251                           
  2252                           ; BSR set to: 0
  2253  000A9A  5174               	movf	___fldiv@aexp& (0+255),w,b
  2254  000A9C  C073  F038         	movff	___fldiv@bexp,??___fldiv
  2255  000AA0  6A39               	clrf	(??___fldiv+1)^0,c
  2256  000AA2  5E38               	subwf	??___fldiv^0,f,c
  2257  000AA4  0E00               	movlw	0
  2258  000AA6  5A39               	subwfb	(??___fldiv+1)^0,f,c
  2259  000AA8  0E7F               	movlw	127
  2260  000AAA  2438               	addwf	??___fldiv^0,w,c
  2261  000AAC  6F6D               	movwf	___fldiv@new_exp& (0+255),b
  2262  000AAE  0E00               	movlw	0
  2263  000AB0  2039               	addwfc	(??___fldiv+1)^0,w,c
  2264  000AB2  6F6E               	movwf	(___fldiv@new_exp+1)& (0+255),b
  2265  000AB4                     
  2266                           ; BSR set to: 0
  2267  000AB4  C060  F068         	movff	___fldiv@b,___fldiv@rem
  2268  000AB8  C061  F069         	movff	___fldiv@b+1,___fldiv@rem+1
  2269  000ABC  C062  F06A         	movff	___fldiv@b+2,___fldiv@rem+2
  2270  000AC0  C063  F06B         	movff	___fldiv@b+3,___fldiv@rem+3
  2271  000AC4                     
  2272                           ; BSR set to: 0
  2273  000AC4  0E00               	movlw	0
  2274  000AC6  6F60               	movwf	___fldiv@b& (0+255),b
  2275  000AC8  0E00               	movlw	0
  2276  000ACA  6F61               	movwf	(___fldiv@b+1)& (0+255),b
  2277  000ACC  0E00               	movlw	0
  2278  000ACE  6F62               	movwf	(___fldiv@b+2)& (0+255),b
  2279  000AD0  0E00               	movlw	0
  2280  000AD2  6F63               	movwf	(___fldiv@b+3)& (0+255),b
  2281  000AD4                     
  2282                           ; BSR set to: 0
  2283  000AD4  0E00               	movlw	0
  2284  000AD6  6F6F               	movwf	___fldiv@grs& (0+255),b
  2285  000AD8  0E00               	movlw	0
  2286  000ADA  6F70               	movwf	(___fldiv@grs+1)& (0+255),b
  2287  000ADC  0E00               	movlw	0
  2288  000ADE  6F71               	movwf	(___fldiv@grs+2)& (0+255),b
  2289  000AE0  0E00               	movlw	0
  2290  000AE2  6F72               	movwf	(___fldiv@grs+3)& (0+255),b
  2291  000AE4                     
  2292                           ; BSR set to: 0
  2293  000AE4  0E00               	movlw	0
  2294  000AE6  6F74               	movwf	___fldiv@aexp& (0+255),b
  2295  000AE8  EFAE  F005         	goto	l1120
  2296  000AEC                     l3625:
  2297                           
  2298                           ; BSR set to: 0
  2299  000AEC  5174               	movf	___fldiv@aexp& (0+255),w,b
  2300  000AEE  B4D8               	btfsc	status,2,c
  2301  000AF0  EF7C  F005         	goto	u3041
  2302  000AF4  EF7E  F005         	goto	u3040
  2303  000AF8                     u3041:
  2304  000AF8  EF95  F005         	goto	l3633
  2305  000AFC                     u3040:
  2306  000AFC                     
  2307                           ; BSR set to: 0
  2308  000AFC  90D8               	bcf	status,0,c
  2309  000AFE  3768               	rlcf	___fldiv@rem& (0+255),f,b
  2310  000B00  3769               	rlcf	(___fldiv@rem+1)& (0+255),f,b
  2311  000B02  376A               	rlcf	(___fldiv@rem+2)& (0+255),f,b
  2312  000B04  376B               	rlcf	(___fldiv@rem+3)& (0+255),f,b
  2313  000B06  90D8               	bcf	status,0,c
  2314  000B08  3760               	rlcf	___fldiv@b& (0+255),f,b
  2315  000B0A  3761               	rlcf	(___fldiv@b+1)& (0+255),f,b
  2316  000B0C  3762               	rlcf	(___fldiv@b+2)& (0+255),f,b
  2317  000B0E  3763               	rlcf	(___fldiv@b+3)& (0+255),f,b
  2318  000B10                     
  2319                           ; BSR set to: 0
  2320  000B10  AF72               	btfss	(___fldiv@grs+3)& (0+255),7,b
  2321  000B12  EF8D  F005         	goto	u3051
  2322  000B16  EF8F  F005         	goto	u3050
  2323  000B1A                     u3051:
  2324  000B1A  EF90  F005         	goto	l1123
  2325  000B1E                     u3050:
  2326  000B1E                     
  2327                           ; BSR set to: 0
  2328  000B1E  8160               	bsf	___fldiv@b& (0+255),0,b
  2329  000B20                     l1123:
  2330                           
  2331                           ; BSR set to: 0
  2332  000B20  90D8               	bcf	status,0,c
  2333  000B22  376F               	rlcf	___fldiv@grs& (0+255),f,b
  2334  000B24  3770               	rlcf	(___fldiv@grs+1)& (0+255),f,b
  2335  000B26  3771               	rlcf	(___fldiv@grs+2)& (0+255),f,b
  2336  000B28  3772               	rlcf	(___fldiv@grs+3)& (0+255),f,b
  2337  000B2A                     l3633:
  2338                           
  2339                           ; BSR set to: 0
  2340  000B2A  5164               	movf	___fldiv@a& (0+255),w,b
  2341  000B2C  5D68               	subwf	___fldiv@rem& (0+255),w,b
  2342  000B2E  5165               	movf	(___fldiv@a+1)& (0+255),w,b
  2343  000B30  5969               	subwfb	(___fldiv@rem+1)& (0+255),w,b
  2344  000B32  5166               	movf	(___fldiv@a+2)& (0+255),w,b
  2345  000B34  596A               	subwfb	(___fldiv@rem+2)& (0+255),w,b
  2346  000B36  5167               	movf	(___fldiv@a+3)& (0+255),w,b
  2347  000B38  596B               	subwfb	(___fldiv@rem+3)& (0+255),w,b
  2348  000B3A  A0D8               	btfss	status,0,c
  2349  000B3C  EFA2  F005         	goto	u3061
  2350  000B40  EFA4  F005         	goto	u3060
  2351  000B44                     u3061:
  2352  000B44  EFAD  F005         	goto	l3639
  2353  000B48                     u3060:
  2354  000B48                     
  2355                           ; BSR set to: 0
  2356  000B48  8D72               	bsf	(___fldiv@grs+3)& (0+255),6,b
  2357  000B4A                     
  2358                           ; BSR set to: 0
  2359  000B4A  5164               	movf	___fldiv@a& (0+255),w,b
  2360  000B4C  5F68               	subwf	___fldiv@rem& (0+255),f,b
  2361  000B4E  5165               	movf	(___fldiv@a+1)& (0+255),w,b
  2362  000B50  5B69               	subwfb	(___fldiv@rem+1)& (0+255),f,b
  2363  000B52  5166               	movf	(___fldiv@a+2)& (0+255),w,b
  2364  000B54  5B6A               	subwfb	(___fldiv@rem+2)& (0+255),f,b
  2365  000B56  5167               	movf	(___fldiv@a+3)& (0+255),w,b
  2366  000B58  5B6B               	subwfb	(___fldiv@rem+3)& (0+255),f,b
  2367  000B5A                     l3639:
  2368                           
  2369                           ; BSR set to: 0
  2370  000B5A  2B74               	incf	___fldiv@aexp& (0+255),f,b
  2371  000B5C                     l1120:
  2372                           
  2373                           ; BSR set to: 0
  2374  000B5C  0E19               	movlw	25
  2375  000B5E  6574               	cpfsgt	___fldiv@aexp& (0+255),b
  2376  000B60  EFB4  F005         	goto	u3071
  2377  000B64  EFB6  F005         	goto	u3070
  2378  000B68                     u3071:
  2379  000B68  EF76  F005         	goto	l3625
  2380  000B6C                     u3070:
  2381  000B6C                     
  2382                           ; BSR set to: 0
  2383  000B6C  5168               	movf	___fldiv@rem& (0+255),w,b
  2384  000B6E  1169               	iorwf	(___fldiv@rem+1)& (0+255),w,b
  2385  000B70  116A               	iorwf	(___fldiv@rem+2)& (0+255),w,b
  2386  000B72  116B               	iorwf	(___fldiv@rem+3)& (0+255),w,b
  2387  000B74  B4D8               	btfsc	status,2,c
  2388  000B76  EFBF  F005         	goto	u3081
  2389  000B7A  EFC1  F005         	goto	u3080
  2390  000B7E                     u3081:
  2391  000B7E  EFD9  F005         	goto	l3651
  2392  000B82                     u3080:
  2393  000B82                     
  2394                           ; BSR set to: 0
  2395  000B82  816F               	bsf	___fldiv@grs& (0+255),0,b
  2396  000B84  EFD9  F005         	goto	l3651
  2397  000B88                     l3645:
  2398                           
  2399                           ; BSR set to: 0
  2400  000B88  90D8               	bcf	status,0,c
  2401  000B8A  3760               	rlcf	___fldiv@b& (0+255),f,b
  2402  000B8C  3761               	rlcf	(___fldiv@b+1)& (0+255),f,b
  2403  000B8E  3762               	rlcf	(___fldiv@b+2)& (0+255),f,b
  2404  000B90  3763               	rlcf	(___fldiv@b+3)& (0+255),f,b
  2405  000B92                     
  2406                           ; BSR set to: 0
  2407  000B92  AF72               	btfss	(___fldiv@grs+3)& (0+255),7,b
  2408  000B94  EFCE  F005         	goto	u3091
  2409  000B98  EFD0  F005         	goto	u3090
  2410  000B9C                     u3091:
  2411  000B9C  EFD1  F005         	goto	l1129
  2412  000BA0                     u3090:
  2413  000BA0                     
  2414                           ; BSR set to: 0
  2415  000BA0  8160               	bsf	___fldiv@b& (0+255),0,b
  2416  000BA2                     l1129:
  2417                           
  2418                           ; BSR set to: 0
  2419  000BA2  90D8               	bcf	status,0,c
  2420  000BA4  376F               	rlcf	___fldiv@grs& (0+255),f,b
  2421  000BA6  3770               	rlcf	(___fldiv@grs+1)& (0+255),f,b
  2422  000BA8  3771               	rlcf	(___fldiv@grs+2)& (0+255),f,b
  2423  000BAA  3772               	rlcf	(___fldiv@grs+3)& (0+255),f,b
  2424  000BAC  076D               	decf	___fldiv@new_exp& (0+255),f,b
  2425  000BAE  A0D8               	btfss	status,0,c
  2426  000BB0  076E               	decf	(___fldiv@new_exp+1)& (0+255),f,b
  2427  000BB2                     l3651:
  2428                           
  2429                           ; BSR set to: 0
  2430  000BB2  AF62               	btfss	(___fldiv@b+2)& (0+255),7,b
  2431  000BB4  EFDE  F005         	goto	u3101
  2432  000BB8  EFE0  F005         	goto	u3100
  2433  000BBC                     u3101:
  2434  000BBC  EFC4  F005         	goto	l3645
  2435  000BC0                     u3100:
  2436  000BC0                     
  2437                           ; BSR set to: 0
  2438  000BC0  0E00               	movlw	0
  2439  000BC2  6F74               	movwf	___fldiv@aexp& (0+255),b
  2440  000BC4                     
  2441                           ; BSR set to: 0
  2442  000BC4  AF72               	btfss	(___fldiv@grs+3)& (0+255),7,b
  2443  000BC6  EFE7  F005         	goto	u3111
  2444  000BCA  EFE9  F005         	goto	u3110
  2445  000BCE                     u3111:
  2446  000BCE  EF0D  F006         	goto	l1131
  2447  000BD2                     u3110:
  2448  000BD2                     
  2449                           ; BSR set to: 0
  2450  000BD2  0EFF               	movlw	255
  2451  000BD4  156F               	andwf	___fldiv@grs& (0+255),w,b
  2452  000BD6  6E38               	movwf	??___fldiv^0,c
  2453  000BD8  0EFF               	movlw	255
  2454  000BDA  1570               	andwf	(___fldiv@grs+1)& (0+255),w,b
  2455  000BDC  6E39               	movwf	(??___fldiv+1)^0,c
  2456  000BDE  0EFF               	movlw	255
  2457  000BE0  1571               	andwf	(___fldiv@grs+2)& (0+255),w,b
  2458  000BE2  6E3A               	movwf	(??___fldiv+2)^0,c
  2459  000BE4  0E7F               	movlw	127
  2460  000BE6  1572               	andwf	(___fldiv@grs+3)& (0+255),w,b
  2461  000BE8  6E3B               	movwf	(??___fldiv+3)^0,c
  2462  000BEA  5038               	movf	??___fldiv^0,w,c
  2463  000BEC  1039               	iorwf	(??___fldiv+1)^0,w,c
  2464  000BEE  103A               	iorwf	(??___fldiv+2)^0,w,c
  2465  000BF0  103B               	iorwf	(??___fldiv+3)^0,w,c
  2466  000BF2  B4D8               	btfsc	status,2,c
  2467  000BF4  EFFE  F005         	goto	u3121
  2468  000BF8  EF00  F006         	goto	u3120
  2469  000BFC                     u3121:
  2470  000BFC  EF04  F006         	goto	l1132
  2471  000C00                     u3120:
  2472  000C00                     l3659:
  2473                           
  2474                           ; BSR set to: 0
  2475  000C00  0E01               	movlw	1
  2476  000C02  6F74               	movwf	___fldiv@aexp& (0+255),b
  2477  000C04  EF0D  F006         	goto	l1131
  2478  000C08                     l1132:
  2479                           
  2480                           ; BSR set to: 0
  2481  000C08  A160               	btfss	___fldiv@b& (0+255),0,b
  2482  000C0A  EF09  F006         	goto	u3131
  2483  000C0E  EF0B  F006         	goto	u3130
  2484  000C12                     u3131:
  2485  000C12  EF0D  F006         	goto	l1131
  2486  000C16                     u3130:
  2487  000C16  EF00  F006         	goto	l3659
  2488  000C1A                     l1131:
  2489                           
  2490                           ; BSR set to: 0
  2491  000C1A  5174               	movf	___fldiv@aexp& (0+255),w,b
  2492  000C1C  B4D8               	btfsc	status,2,c
  2493  000C1E  EF13  F006         	goto	u3141
  2494  000C22  EF15  F006         	goto	u3140
  2495  000C26                     u3141:
  2496  000C26  EF39  F006         	goto	l3671
  2497  000C2A                     u3140:
  2498  000C2A                     
  2499                           ; BSR set to: 0
  2500  000C2A  0E01               	movlw	1
  2501  000C2C  2760               	addwf	___fldiv@b& (0+255),f,b
  2502  000C2E  0E00               	movlw	0
  2503  000C30  2361               	addwfc	(___fldiv@b+1)& (0+255),f,b
  2504  000C32  2362               	addwfc	(___fldiv@b+2)& (0+255),f,b
  2505  000C34  2363               	addwfc	(___fldiv@b+3)& (0+255),f,b
  2506  000C36                     
  2507                           ; BSR set to: 0
  2508  000C36  A163               	btfss	(___fldiv@b+3)& (0+255),0,b
  2509  000C38  EF20  F006         	goto	u3151
  2510  000C3C  EF22  F006         	goto	u3150
  2511  000C40                     u3151:
  2512  000C40  EF39  F006         	goto	l3671
  2513  000C44                     u3150:
  2514  000C44                     
  2515                           ; BSR set to: 0
  2516  000C44  C060  F038         	movff	___fldiv@b,??___fldiv
  2517  000C48  C061  F039         	movff	___fldiv@b+1,??___fldiv+1
  2518  000C4C  C062  F03A         	movff	___fldiv@b+2,??___fldiv+2
  2519  000C50  C063  F03B         	movff	___fldiv@b+3,??___fldiv+3
  2520  000C54  343B               	rlcf	(??___fldiv+3)^0,w,c
  2521  000C56  323B               	rrcf	(??___fldiv+3)^0,f,c
  2522  000C58  323A               	rrcf	(??___fldiv+2)^0,f,c
  2523  000C5A  3239               	rrcf	(??___fldiv+1)^0,f,c
  2524  000C5C  3238               	rrcf	??___fldiv^0,f,c
  2525  000C5E  C038  F060         	movff	??___fldiv,___fldiv@b
  2526  000C62  C039  F061         	movff	??___fldiv+1,___fldiv@b+1
  2527  000C66  C03A  F062         	movff	??___fldiv+2,___fldiv@b+2
  2528  000C6A  C03B  F063         	movff	??___fldiv+3,___fldiv@b+3
  2529  000C6E                     
  2530                           ; BSR set to: 0
  2531  000C6E  4B6D               	infsnz	___fldiv@new_exp& (0+255),f,b
  2532  000C70  2B6E               	incf	(___fldiv@new_exp+1)& (0+255),f,b
  2533  000C72                     l3671:
  2534                           
  2535                           ; BSR set to: 0
  2536  000C72  BF6E               	btfsc	(___fldiv@new_exp+1)& (0+255),7,b
  2537  000C74  EF44  F006         	goto	u3161
  2538  000C78  516E               	movf	(___fldiv@new_exp+1)& (0+255),w,b
  2539  000C7A  E108               	bnz	u3160
  2540  000C7C  296D               	incf	___fldiv@new_exp& (0+255),w,b
  2541  000C7E  A0D8               	btfss	status,0,c
  2542  000C80  EF44  F006         	goto	u3161
  2543  000C84  EF46  F006         	goto	u3160
  2544  000C88                     u3161:
  2545  000C88  EF51  F006         	goto	l3675
  2546  000C8C                     u3160:
  2547  000C8C                     
  2548                           ; BSR set to: 0
  2549  000C8C  0E00               	movlw	0
  2550  000C8E  6F6E               	movwf	(___fldiv@new_exp+1)& (0+255),b
  2551  000C90  696D               	setf	___fldiv@new_exp& (0+255),b
  2552  000C92  0E00               	movlw	0
  2553  000C94  6F60               	movwf	___fldiv@b& (0+255),b
  2554  000C96  0E00               	movlw	0
  2555  000C98  6F61               	movwf	(___fldiv@b+1)& (0+255),b
  2556  000C9A  0E00               	movlw	0
  2557  000C9C  6F62               	movwf	(___fldiv@b+2)& (0+255),b
  2558  000C9E  0E00               	movlw	0
  2559  000CA0  6F63               	movwf	(___fldiv@b+3)& (0+255),b
  2560  000CA2                     l3675:
  2561                           
  2562                           ; BSR set to: 0
  2563  000CA2  BF6E               	btfsc	(___fldiv@new_exp+1)& (0+255),7,b
  2564  000CA4  EF5E  F006         	goto	u3170
  2565  000CA8  516E               	movf	(___fldiv@new_exp+1)& (0+255),w,b
  2566  000CAA  E106               	bnz	u3171
  2567  000CAC  056D               	decf	___fldiv@new_exp& (0+255),w,b
  2568  000CAE  B0D8               	btfsc	status,0,c
  2569  000CB0  EF5C  F006         	goto	u3171
  2570  000CB4  EF5E  F006         	goto	u3170
  2571  000CB8                     u3171:
  2572  000CB8  EF6C  F006         	goto	l3679
  2573  000CBC                     u3170:
  2574  000CBC                     
  2575                           ; BSR set to: 0
  2576  000CBC  0E00               	movlw	0
  2577  000CBE  6F6E               	movwf	(___fldiv@new_exp+1)& (0+255),b
  2578  000CC0  0E00               	movlw	0
  2579  000CC2  6F6D               	movwf	___fldiv@new_exp& (0+255),b
  2580  000CC4  0E00               	movlw	0
  2581  000CC6  6F60               	movwf	___fldiv@b& (0+255),b
  2582  000CC8  0E00               	movlw	0
  2583  000CCA  6F61               	movwf	(___fldiv@b+1)& (0+255),b
  2584  000CCC  0E00               	movlw	0
  2585  000CCE  6F62               	movwf	(___fldiv@b+2)& (0+255),b
  2586  000CD0  0E00               	movlw	0
  2587  000CD2  6F63               	movwf	(___fldiv@b+3)& (0+255),b
  2588  000CD4  0E00               	movlw	0
  2589  000CD6  6F6C               	movwf	___fldiv@sign& (0+255),b
  2590  000CD8                     l3679:
  2591                           
  2592                           ; BSR set to: 0
  2593  000CD8  C06D  F073         	movff	___fldiv@new_exp,___fldiv@bexp
  2594  000CDC                     
  2595                           ; BSR set to: 0
  2596  000CDC  A173               	btfss	___fldiv@bexp& (0+255),0,b
  2597  000CDE  EF73  F006         	goto	u3181
  2598  000CE2  EF75  F006         	goto	u3180
  2599  000CE6                     u3181:
  2600  000CE6  EF78  F006         	goto	l3685
  2601  000CEA                     u3180:
  2602  000CEA                     
  2603                           ; BSR set to: 0
  2604  000CEA  8F62               	bsf	(___fldiv@b+2)& (0+255),7,b
  2605  000CEC  EF79  F006         	goto	l3687
  2606  000CF0                     l3685:
  2607                           
  2608                           ; BSR set to: 0
  2609  000CF0  9F62               	bcf	(___fldiv@b+2)& (0+255),7,b
  2610  000CF2                     l3687:
  2611                           
  2612                           ; BSR set to: 0
  2613  000CF2  90D8               	bcf	status,0,c
  2614  000CF4  3173               	rrcf	___fldiv@bexp& (0+255),w,b
  2615  000CF6  6F63               	movwf	(___fldiv@b+3)& (0+255),b
  2616  000CF8  EF2F  F005         	goto	l3601
  2617  000CFC                     l1118:
  2618                           
  2619                           ; BSR set to: 0
  2620  000CFC  0012               	return		;funcret
  2621  000CFE                     __end_of___fldiv:
  2622                           	opt callstack 0
  2623                           
  2624 ;; *************** function ___fladd *****************
  2625 ;; Defined at:
  2626 ;;		line 10 in file "D:\programs\pic\sources\c99\common\sprcadd.c"
  2627 ;; Parameters:    Size  Location     Type
  2628 ;;  b               4   16[COMRAM] unsigned char 
  2629 ;;  a               4   20[COMRAM] unsigned char 
  2630 ;; Auto vars:     Size  Location     Type
  2631 ;;  grs             1   31[COMRAM] unsigned char 
  2632 ;;  bexp            1   30[COMRAM] unsigned char 
  2633 ;;  aexp            1   29[COMRAM] unsigned char 
  2634 ;;  signs           1   28[COMRAM] unsigned char 
  2635 ;; Return value:  Size  Location     Type
  2636 ;;                  4   16[COMRAM] unsigned char 
  2637 ;; Registers used:
  2638 ;;		wreg, status,2, status,0
  2639 ;; Tracked objects:
  2640 ;;		On entry : 0/0
  2641 ;;		On exit  : 0/0
  2642 ;;		Unchanged: 0/0
  2643 ;; Data sizes:     COMRAM   BANK0   BANK1   BANK2   BANK3   BANK4   BANK5
  2644 ;;      Params:         8       0       0       0       0       0       0
  2645 ;;      Locals:         4       0       0       0       0       0       0
  2646 ;;      Temps:          4       0       0       0       0       0       0
  2647 ;;      Totals:        16       0       0       0       0       0       0
  2648 ;;Total ram usage:       16 bytes
  2649 ;; Hardware stack levels used:    1
  2650 ;; Hardware stack levels required when called:    6
  2651 ;; This function calls:
  2652 ;;		Nothing
  2653 ;; This function is called by:
  2654 ;;		_readTemperatureSensor
  2655 ;; This function uses a non-reentrant model
  2656 ;;
  2657                           
  2658                           	psect	text7
  2659  000078                     __ptext7:
  2660                           	opt callstack 0
  2661  000078                     ___fladd:
  2662                           	opt callstack 23
  2663  000078  5014               	movf	(___fladd@b+3)^0,w,c
  2664  00007A  0B80               	andlw	128
  2665  00007C  6E1D               	movwf	___fladd@signs^0,c
  2666  00007E  5014               	movf	(___fladd@b+3)^0,w,c
  2667  000080  2414               	addwf	(___fladd@b+3)^0,w,c
  2668  000082  6E1F               	movwf	___fladd@bexp^0,c
  2669  000084  AE13               	btfss	(___fladd@b+2)^0,7,c
  2670  000086  EF47  F000         	goto	u1831
  2671  00008A  EF49  F000         	goto	u1830
  2672  00008E                     u1831:
  2673  00008E  EF4A  F000         	goto	l2763
  2674  000092                     u1830:
  2675  000092  801F               	bsf	___fladd@bexp^0,0,c
  2676  000094                     l2763:
  2677  000094  501F               	movf	___fladd@bexp^0,w,c
  2678  000096  B4D8               	btfsc	status,2,c
  2679  000098  EF50  F000         	goto	u1841
  2680  00009C  EF52  F000         	goto	u1840
  2681  0000A0                     u1841:
  2682  0000A0  EF67  F000         	goto	l2773
  2683  0000A4                     u1840:
  2684  0000A4  281F               	incf	___fladd@bexp^0,w,c
  2685  0000A6  A4D8               	btfss	status,2,c
  2686  0000A8  EF58  F000         	goto	u1851
  2687  0000AC  EF5A  F000         	goto	u1850
  2688  0000B0                     u1851:
  2689  0000B0  EF62  F000         	goto	l2769
  2690  0000B4                     u1850:
  2691  0000B4  0E00               	movlw	0
  2692  0000B6  6E11               	movwf	___fladd@b^0,c
  2693  0000B8  0E00               	movlw	0
  2694  0000BA  6E12               	movwf	(___fladd@b+1)^0,c
  2695  0000BC  0E00               	movlw	0
  2696  0000BE  6E13               	movwf	(___fladd@b+2)^0,c
  2697  0000C0  0E00               	movlw	0
  2698  0000C2  6E14               	movwf	(___fladd@b+3)^0,c
  2699  0000C4                     l2769:
  2700  0000C4  8E13               	bsf	(___fladd@b+2)^0,7,c
  2701  0000C6  0E00               	movlw	0
  2702  0000C8  6E14               	movwf	(___fladd@b+3)^0,c
  2703  0000CA  EF6F  F000         	goto	l2775
  2704  0000CE                     l2773:
  2705  0000CE  0E00               	movlw	0
  2706  0000D0  6E11               	movwf	___fladd@b^0,c
  2707  0000D2  0E00               	movlw	0
  2708  0000D4  6E12               	movwf	(___fladd@b+1)^0,c
  2709  0000D6  0E00               	movlw	0
  2710  0000D8  6E13               	movwf	(___fladd@b+2)^0,c
  2711  0000DA  0E00               	movlw	0
  2712  0000DC  6E14               	movwf	(___fladd@b+3)^0,c
  2713  0000DE                     l2775:
  2714  0000DE  5018               	movf	(___fladd@a+3)^0,w,c
  2715  0000E0  0B80               	andlw	128
  2716  0000E2  6E1E               	movwf	___fladd@aexp^0,c
  2717  0000E4  501D               	movf	___fladd@signs^0,w,c
  2718  0000E6  181E               	xorwf	___fladd@aexp^0,w,c
  2719  0000E8  B4D8               	btfsc	status,2,c
  2720  0000EA  EF79  F000         	goto	u1861
  2721  0000EE  EF7B  F000         	goto	u1860
  2722  0000F2                     u1861:
  2723  0000F2  EF7C  F000         	goto	l2781
  2724  0000F6                     u1860:
  2725  0000F6  8C1D               	bsf	___fladd@signs^0,6,c
  2726  0000F8                     l2781:
  2727  0000F8  5018               	movf	(___fladd@a+3)^0,w,c
  2728  0000FA  2418               	addwf	(___fladd@a+3)^0,w,c
  2729  0000FC  6E1E               	movwf	___fladd@aexp^0,c
  2730  0000FE  AE17               	btfss	(___fladd@a+2)^0,7,c
  2731  000100  EF84  F000         	goto	u1871
  2732  000104  EF86  F000         	goto	u1870
  2733  000108                     u1871:
  2734  000108  EF87  F000         	goto	l2787
  2735  00010C                     u1870:
  2736  00010C  801E               	bsf	___fladd@aexp^0,0,c
  2737  00010E                     l2787:
  2738  00010E  501E               	movf	___fladd@aexp^0,w,c
  2739  000110  B4D8               	btfsc	status,2,c
  2740  000112  EF8D  F000         	goto	u1881
  2741  000116  EF8F  F000         	goto	u1880
  2742  00011A                     u1881:
  2743  00011A  EFA4  F000         	goto	l2797
  2744  00011E                     u1880:
  2745  00011E  281E               	incf	___fladd@aexp^0,w,c
  2746  000120  A4D8               	btfss	status,2,c
  2747  000122  EF95  F000         	goto	u1891
  2748  000126  EF97  F000         	goto	u1890
  2749  00012A                     u1891:
  2750  00012A  EF9F  F000         	goto	l2793
  2751  00012E                     u1890:
  2752  00012E  0E00               	movlw	0
  2753  000130  6E15               	movwf	___fladd@a^0,c
  2754  000132  0E00               	movlw	0
  2755  000134  6E16               	movwf	(___fladd@a+1)^0,c
  2756  000136  0E00               	movlw	0
  2757  000138  6E17               	movwf	(___fladd@a+2)^0,c
  2758  00013A  0E00               	movlw	0
  2759  00013C  6E18               	movwf	(___fladd@a+3)^0,c
  2760  00013E                     l2793:
  2761  00013E  8E17               	bsf	(___fladd@a+2)^0,7,c
  2762  000140  0E00               	movlw	0
  2763  000142  6E18               	movwf	(___fladd@a+3)^0,c
  2764  000144  EFAC  F000         	goto	l2799
  2765  000148                     l2797:
  2766  000148  0E00               	movlw	0
  2767  00014A  6E15               	movwf	___fladd@a^0,c
  2768  00014C  0E00               	movlw	0
  2769  00014E  6E16               	movwf	(___fladd@a+1)^0,c
  2770  000150  0E00               	movlw	0
  2771  000152  6E17               	movwf	(___fladd@a+2)^0,c
  2772  000154  0E00               	movlw	0
  2773  000156  6E18               	movwf	(___fladd@a+3)^0,c
  2774  000158                     l2799:
  2775  000158  501F               	movf	___fladd@bexp^0,w,c
  2776  00015A  5C1E               	subwf	___fladd@aexp^0,w,c
  2777  00015C  B0D8               	btfsc	status,0,c
  2778  00015E  EFB3  F000         	goto	u1901
  2779  000162  EFB5  F000         	goto	u1900
  2780  000166                     u1901:
  2781  000166  EFDC  F000         	goto	l2835
  2782  00016A                     u1900:
  2783  00016A  AC1D               	btfss	___fladd@signs^0,6,c
  2784  00016C  EFBA  F000         	goto	u1911
  2785  000170  EFBC  F000         	goto	u1910
  2786  000174                     u1911:
  2787  000174  EFBE  F000         	goto	l2805
  2788  000178                     u1910:
  2789  000178  0E80               	movlw	128
  2790  00017A  1A1D               	xorwf	___fladd@signs^0,f,c
  2791  00017C                     l2805:
  2792  00017C  C01F  F020         	movff	___fladd@bexp,___fladd@grs
  2793  000180  C01E  F01F         	movff	___fladd@aexp,___fladd@bexp
  2794  000184  C020  F01E         	movff	___fladd@grs,___fladd@aexp
  2795  000188  C011  F020         	movff	___fladd@b,___fladd@grs
  2796  00018C  C015  F011         	movff	___fladd@a,___fladd@b
  2797  000190  C020  F015         	movff	___fladd@grs,___fladd@a
  2798  000194  C012  F020         	movff	___fladd@b+1,___fladd@grs
  2799  000198  C016  F012         	movff	___fladd@a+1,___fladd@b+1
  2800  00019C  C020  F016         	movff	___fladd@grs,___fladd@a+1
  2801  0001A0  C013  F020         	movff	___fladd@b+2,___fladd@grs
  2802  0001A4  C017  F013         	movff	___fladd@a+2,___fladd@b+2
  2803  0001A8  C020  F017         	movff	___fladd@grs,___fladd@a+2
  2804  0001AC  C014  F020         	movff	___fladd@b+3,___fladd@grs
  2805  0001B0  C018  F014         	movff	___fladd@a+3,___fladd@b+3
  2806  0001B4  C020  F018         	movff	___fladd@grs,___fladd@a+3
  2807  0001B8                     l2835:
  2808  0001B8  0E00               	movlw	0
  2809  0001BA  6E20               	movwf	___fladd@grs^0,c
  2810  0001BC  501F               	movf	___fladd@bexp^0,w,c
  2811  0001BE  C01E  F019         	movff	___fladd@aexp,??___fladd
  2812  0001C2  6A1A               	clrf	(??___fladd+1)^0,c
  2813  0001C4  5E19               	subwf	??___fladd^0,f,c
  2814  0001C6  0E00               	movlw	0
  2815  0001C8  5A1A               	subwfb	(??___fladd+1)^0,f,c
  2816  0001CA  BE1A               	btfsc	(??___fladd+1)^0,7,c
  2817  0001CC  EFF1  F000         	goto	u1921
  2818  0001D0  501A               	movf	(??___fladd+1)^0,w,c
  2819  0001D2  E109               	bnz	u1920
  2820  0001D4  0E1A               	movlw	26
  2821  0001D6  5C19               	subwf	??___fladd^0,w,c
  2822  0001D8  A0D8               	btfss	status,0,c
  2823  0001DA  EFF1  F000         	goto	u1921
  2824  0001DE  EFF3  F000         	goto	u1920
  2825  0001E2                     u1921:
  2826  0001E2  EF2A  F001         	goto	l1065
  2827  0001E6                     u1920:
  2828  0001E6  5011               	movf	___fladd@b^0,w,c
  2829  0001E8  1012               	iorwf	(___fladd@b+1)^0,w,c
  2830  0001EA  1013               	iorwf	(___fladd@b+2)^0,w,c
  2831  0001EC  1014               	iorwf	(___fladd@b+3)^0,w,c
  2832  0001EE  A4D8               	btfss	status,2,c
  2833  0001F0  EFFC  F000         	goto	u1931
  2834  0001F4  EFFF  F000         	goto	u1930
  2835  0001F8                     u1931:
  2836  0001F8  0E01               	movlw	1
  2837  0001FA  EF00  F001         	goto	u1940
  2838  0001FE                     u1930:
  2839  0001FE  0E00               	movlw	0
  2840  000200                     u1940:
  2841  000200  6E20               	movwf	___fladd@grs^0,c
  2842  000202  0E00               	movlw	0
  2843  000204  6E11               	movwf	___fladd@b^0,c
  2844  000206  0E00               	movlw	0
  2845  000208  6E12               	movwf	(___fladd@b+1)^0,c
  2846  00020A  0E00               	movlw	0
  2847  00020C  6E13               	movwf	(___fladd@b+2)^0,c
  2848  00020E  0E00               	movlw	0
  2849  000210  6E14               	movwf	(___fladd@b+3)^0,c
  2850  000212  C01E  F01F         	movff	___fladd@aexp,___fladd@bexp
  2851  000216  EF33  F001         	goto	l1064
  2852  00021A                     l1066:
  2853  00021A  A020               	btfss	___fladd@grs^0,0,c
  2854  00021C  EF12  F001         	goto	u1951
  2855  000220  EF14  F001         	goto	u1950
  2856  000224                     u1951:
  2857  000224  EF1A  F001         	goto	l2847
  2858  000228                     u1950:
  2859  000228  90D8               	bcf	status,0,c
  2860  00022A  3020               	rrcf	___fladd@grs^0,w,c
  2861  00022C  0901               	iorlw	1
  2862  00022E  6E20               	movwf	___fladd@grs^0,c
  2863  000230  EF1C  F001         	goto	l2849
  2864  000234                     l2847:
  2865  000234  90D8               	bcf	status,0,c
  2866  000236  3220               	rrcf	___fladd@grs^0,f,c
  2867  000238                     l2849:
  2868  000238  A011               	btfss	___fladd@b^0,0,c
  2869  00023A  EF21  F001         	goto	u1961
  2870  00023E  EF23  F001         	goto	u1960
  2871  000242                     u1961:
  2872  000242  EF24  F001         	goto	l2853
  2873  000246                     u1960:
  2874  000246  8E20               	bsf	___fladd@grs^0,7,c
  2875  000248                     l2853:
  2876  000248  3414               	rlcf	(___fladd@b+3)^0,w,c
  2877  00024A  3214               	rrcf	(___fladd@b+3)^0,f,c
  2878  00024C  3213               	rrcf	(___fladd@b+2)^0,f,c
  2879  00024E  3212               	rrcf	(___fladd@b+1)^0,f,c
  2880  000250  3211               	rrcf	___fladd@b^0,f,c
  2881  000252  2A1F               	incf	___fladd@bexp^0,f,c
  2882  000254                     l1065:
  2883  000254  501E               	movf	___fladd@aexp^0,w,c
  2884  000256  5C1F               	subwf	___fladd@bexp^0,w,c
  2885  000258  A0D8               	btfss	status,0,c
  2886  00025A  EF31  F001         	goto	u1971
  2887  00025E  EF33  F001         	goto	u1970
  2888  000262                     u1971:
  2889  000262  EF0D  F001         	goto	l1066
  2890  000266                     u1970:
  2891  000266                     l1064:
  2892  000266  BC1D               	btfsc	___fladd@signs^0,6,c
  2893  000268  EF38  F001         	goto	u1981
  2894  00026C  EF3A  F001         	goto	u1980
  2895  000270                     u1981:
  2896  000270  EF7A  F001         	goto	l2881
  2897  000274                     u1980:
  2898  000274  501F               	movf	___fladd@bexp^0,w,c
  2899  000276  A4D8               	btfss	status,2,c
  2900  000278  EF40  F001         	goto	u1991
  2901  00027C  EF42  F001         	goto	u1990
  2902  000280                     u1991:
  2903  000280  EF4C  F001         	goto	l2863
  2904  000284                     u1990:
  2905  000284  0E00               	movlw	0
  2906  000286  6E11               	movwf	?___fladd^0,c
  2907  000288  0E00               	movlw	0
  2908  00028A  6E12               	movwf	(?___fladd+1)^0,c
  2909  00028C  0E00               	movlw	0
  2910  00028E  6E13               	movwf	(?___fladd+2)^0,c
  2911  000290  0E00               	movlw	0
  2912  000292  6E14               	movwf	(?___fladd+3)^0,c
  2913  000294  EF9B  F002         	goto	l1073
  2914  000298                     l2863:
  2915  000298  5015               	movf	___fladd@a^0,w,c
  2916  00029A  2611               	addwf	___fladd@b^0,f,c
  2917  00029C  5016               	movf	(___fladd@a+1)^0,w,c
  2918  00029E  2212               	addwfc	(___fladd@b+1)^0,f,c
  2919  0002A0  5017               	movf	(___fladd@a+2)^0,w,c
  2920  0002A2  2213               	addwfc	(___fladd@b+2)^0,f,c
  2921  0002A4  5018               	movf	(___fladd@a+3)^0,w,c
  2922  0002A6  2214               	addwfc	(___fladd@b+3)^0,f,c
  2923  0002A8  A014               	btfss	(___fladd@b+3)^0,0,c
  2924  0002AA  EF59  F001         	goto	u2001
  2925  0002AE  EF5B  F001         	goto	u2000
  2926  0002B2                     u2001:
  2927  0002B2  EF07  F002         	goto	l2917
  2928  0002B6                     u2000:
  2929  0002B6  A020               	btfss	___fladd@grs^0,0,c
  2930  0002B8  EF60  F001         	goto	u2011
  2931  0002BC  EF62  F001         	goto	u2010
  2932  0002C0                     u2011:
  2933  0002C0  EF68  F001         	goto	l2871
  2934  0002C4                     u2010:
  2935  0002C4  90D8               	bcf	status,0,c
  2936  0002C6  3020               	rrcf	___fladd@grs^0,w,c
  2937  0002C8  0901               	iorlw	1
  2938  0002CA  6E20               	movwf	___fladd@grs^0,c
  2939  0002CC  EF6A  F001         	goto	l2873
  2940  0002D0                     l2871:
  2941  0002D0  90D8               	bcf	status,0,c
  2942  0002D2  3220               	rrcf	___fladd@grs^0,f,c
  2943  0002D4                     l2873:
  2944  0002D4  A011               	btfss	___fladd@b^0,0,c
  2945  0002D6  EF6F  F001         	goto	u2021
  2946  0002DA  EF71  F001         	goto	u2020
  2947  0002DE                     u2021:
  2948  0002DE  EF72  F001         	goto	l2877
  2949  0002E2                     u2020:
  2950  0002E2  8E20               	bsf	___fladd@grs^0,7,c
  2951  0002E4                     l2877:
  2952  0002E4  3414               	rlcf	(___fladd@b+3)^0,w,c
  2953  0002E6  3214               	rrcf	(___fladd@b+3)^0,f,c
  2954  0002E8  3213               	rrcf	(___fladd@b+2)^0,f,c
  2955  0002EA  3212               	rrcf	(___fladd@b+1)^0,f,c
  2956  0002EC  3211               	rrcf	___fladd@b^0,f,c
  2957  0002EE  2A1F               	incf	___fladd@bexp^0,f,c
  2958  0002F0  EF07  F002         	goto	l2917
  2959  0002F4                     l2881:
  2960  0002F4  5015               	movf	___fladd@a^0,w,c
  2961  0002F6  5C11               	subwf	___fladd@b^0,w,c
  2962  0002F8  5016               	movf	(___fladd@a+1)^0,w,c
  2963  0002FA  5812               	subwfb	(___fladd@b+1)^0,w,c
  2964  0002FC  5017               	movf	(___fladd@a+2)^0,w,c
  2965  0002FE  5813               	subwfb	(___fladd@b+2)^0,w,c
  2966  000300  5014               	movf	(___fladd@b+3)^0,w,c
  2967  000302  0A80               	xorlw	128
  2968  000304  6E19               	movwf	??___fladd^0,c
  2969  000306  5018               	movf	(___fladd@a+3)^0,w,c
  2970  000308  0A80               	xorlw	128
  2971  00030A  5819               	subwfb	??___fladd^0,w,c
  2972  00030C  B0D8               	btfsc	status,0,c
  2973  00030E  EF8B  F001         	goto	u2031
  2974  000312  EF8D  F001         	goto	u2030
  2975  000316                     u2031:
  2976  000316  EFB8  F001         	goto	l2891
  2977  00031A                     u2030:
  2978  00031A  5011               	movf	___fladd@b^0,w,c
  2979  00031C  5C15               	subwf	___fladd@a^0,w,c
  2980  00031E  6E19               	movwf	??___fladd^0,c
  2981  000320  5012               	movf	(___fladd@b+1)^0,w,c
  2982  000322  5816               	subwfb	(___fladd@a+1)^0,w,c
  2983  000324  6E1A               	movwf	(??___fladd+1)^0,c
  2984  000326  5013               	movf	(___fladd@b+2)^0,w,c
  2985  000328  5817               	subwfb	(___fladd@a+2)^0,w,c
  2986  00032A  6E1B               	movwf	(??___fladd+2)^0,c
  2987  00032C  5014               	movf	(___fladd@b+3)^0,w,c
  2988  00032E  5818               	subwfb	(___fladd@a+3)^0,w,c
  2989  000330  6E1C               	movwf	(??___fladd+3)^0,c
  2990  000332  0EFF               	movlw	255
  2991  000334  2419               	addwf	??___fladd^0,w,c
  2992  000336  6E11               	movwf	___fladd@b^0,c
  2993  000338  0EFF               	movlw	255
  2994  00033A  201A               	addwfc	(??___fladd+1)^0,w,c
  2995  00033C  6E12               	movwf	(___fladd@b+1)^0,c
  2996  00033E  0EFF               	movlw	255
  2997  000340  201B               	addwfc	(??___fladd+2)^0,w,c
  2998  000342  6E13               	movwf	(___fladd@b+2)^0,c
  2999  000344  0EFF               	movlw	255
  3000  000346  201C               	addwfc	(??___fladd+3)^0,w,c
  3001  000348  6E14               	movwf	(___fladd@b+3)^0,c
  3002  00034A  0E80               	movlw	128
  3003  00034C  1A1D               	xorwf	___fladd@signs^0,f,c
  3004  00034E  6C20               	negf	___fladd@grs^0,c
  3005  000350  5020               	movf	___fladd@grs^0,w,c
  3006  000352  A4D8               	btfss	status,2,c
  3007  000354  EFAE  F001         	goto	u2041
  3008  000358  EFB0  F001         	goto	u2040
  3009  00035C                     u2041:
  3010  00035C  EFC0  F001         	goto	l1081
  3011  000360                     u2040:
  3012  000360  0E01               	movlw	1
  3013  000362  2611               	addwf	___fladd@b^0,f,c
  3014  000364  0E00               	movlw	0
  3015  000366  2212               	addwfc	(___fladd@b+1)^0,f,c
  3016  000368  2213               	addwfc	(___fladd@b+2)^0,f,c
  3017  00036A  2214               	addwfc	(___fladd@b+3)^0,f,c
  3018  00036C  EFC0  F001         	goto	l1081
  3019  000370                     l2891:
  3020  000370  5015               	movf	___fladd@a^0,w,c
  3021  000372  5E11               	subwf	___fladd@b^0,f,c
  3022  000374  5016               	movf	(___fladd@a+1)^0,w,c
  3023  000376  5A12               	subwfb	(___fladd@b+1)^0,f,c
  3024  000378  5017               	movf	(___fladd@a+2)^0,w,c
  3025  00037A  5A13               	subwfb	(___fladd@b+2)^0,f,c
  3026  00037C  5018               	movf	(___fladd@a+3)^0,w,c
  3027  00037E  5A14               	subwfb	(___fladd@b+3)^0,f,c
  3028  000380                     l1081:
  3029  000380  5011               	movf	___fladd@b^0,w,c
  3030  000382  1012               	iorwf	(___fladd@b+1)^0,w,c
  3031  000384  1013               	iorwf	(___fladd@b+2)^0,w,c
  3032  000386  1014               	iorwf	(___fladd@b+3)^0,w,c
  3033  000388  A4D8               	btfss	status,2,c
  3034  00038A  EFC9  F001         	goto	u2051
  3035  00038E  EFCB  F001         	goto	u2050
  3036  000392                     u2051:
  3037  000392  EF00  F002         	goto	l2915
  3038  000396                     u2050:
  3039  000396  5020               	movf	___fladd@grs^0,w,c
  3040  000398  A4D8               	btfss	status,2,c
  3041  00039A  EFD1  F001         	goto	u2061
  3042  00039E  EFD3  F001         	goto	u2060
  3043  0003A2                     u2061:
  3044  0003A2  EF00  F002         	goto	l2915
  3045  0003A6                     u2060:
  3046  0003A6  0E00               	movlw	0
  3047  0003A8  6E11               	movwf	?___fladd^0,c
  3048  0003AA  0E00               	movlw	0
  3049  0003AC  6E12               	movwf	(?___fladd+1)^0,c
  3050  0003AE  0E00               	movlw	0
  3051  0003B0  6E13               	movwf	(?___fladd+2)^0,c
  3052  0003B2  0E00               	movlw	0
  3053  0003B4  6E14               	movwf	(?___fladd+3)^0,c
  3054  0003B6  EF9B  F002         	goto	l1073
  3055  0003BA                     l2899:
  3056  0003BA  90D8               	bcf	status,0,c
  3057  0003BC  3611               	rlcf	___fladd@b^0,f,c
  3058  0003BE  3612               	rlcf	(___fladd@b+1)^0,f,c
  3059  0003C0  3613               	rlcf	(___fladd@b+2)^0,f,c
  3060  0003C2  3614               	rlcf	(___fladd@b+3)^0,f,c
  3061  0003C4  AE20               	btfss	___fladd@grs^0,7,c
  3062  0003C6  EFE7  F001         	goto	u2071
  3063  0003CA  EFE9  F001         	goto	u2070
  3064  0003CE                     u2071:
  3065  0003CE  EFEA  F001         	goto	l2905
  3066  0003D2                     u2070:
  3067  0003D2  8011               	bsf	___fladd@b^0,0,c
  3068  0003D4                     l2905:
  3069  0003D4  A020               	btfss	___fladd@grs^0,0,c
  3070  0003D6  EFEF  F001         	goto	u2081
  3071  0003DA  EFF1  F001         	goto	u2080
  3072  0003DE                     u2081:
  3073  0003DE  EFF5  F001         	goto	l2909
  3074  0003E2                     u2080:
  3075  0003E2  80D8               	bsf	status,0,c
  3076  0003E4  3620               	rlcf	___fladd@grs^0,f,c
  3077  0003E6  EFF7  F001         	goto	l2911
  3078  0003EA                     l2909:
  3079  0003EA  90D8               	bcf	status,0,c
  3080  0003EC  3620               	rlcf	___fladd@grs^0,f,c
  3081  0003EE                     l2911:
  3082  0003EE  501F               	movf	___fladd@bexp^0,w,c
  3083  0003F0  B4D8               	btfsc	status,2,c
  3084  0003F2  EFFD  F001         	goto	u2091
  3085  0003F6  EFFF  F001         	goto	u2090
  3086  0003FA                     u2091:
  3087  0003FA  EF00  F002         	goto	l2915
  3088  0003FE                     u2090:
  3089  0003FE  061F               	decf	___fladd@bexp^0,f,c
  3090  000400                     l2915:
  3091  000400  AE13               	btfss	(___fladd@b+2)^0,7,c
  3092  000402  EF05  F002         	goto	u2101
  3093  000406  EF07  F002         	goto	u2100
  3094  00040A                     u2101:
  3095  00040A  EFDD  F001         	goto	l2899
  3096  00040E                     u2100:
  3097  00040E                     l2917:
  3098  00040E  0E00               	movlw	0
  3099  000410  6E1E               	movwf	___fladd@aexp^0,c
  3100  000412  AE20               	btfss	___fladd@grs^0,7,c
  3101  000414  EF0E  F002         	goto	u2111
  3102  000418  EF10  F002         	goto	u2110
  3103  00041C                     u2111:
  3104  00041C  EF28  F002         	goto	l1090
  3105  000420                     u2110:
  3106  000420  C020  F019         	movff	___fladd@grs,??___fladd
  3107  000424  0E7F               	movlw	127
  3108  000426  1619               	andwf	??___fladd^0,f,c
  3109  000428  B4D8               	btfsc	status,2,c
  3110  00042A  EF19  F002         	goto	u2121
  3111  00042E  EF1B  F002         	goto	u2120
  3112  000432                     u2121:
  3113  000432  EF1F  F002         	goto	l1091
  3114  000436                     u2120:
  3115  000436                     l2923:
  3116  000436  0E01               	movlw	1
  3117  000438  6E1E               	movwf	___fladd@aexp^0,c
  3118  00043A  EF28  F002         	goto	l1090
  3119  00043E                     l1091:
  3120  00043E  A011               	btfss	___fladd@b^0,0,c
  3121  000440  EF24  F002         	goto	u2131
  3122  000444  EF26  F002         	goto	u2130
  3123  000448                     u2131:
  3124  000448  EF28  F002         	goto	l1090
  3125  00044C                     u2130:
  3126  00044C  EF1B  F002         	goto	l2923
  3127  000450                     l1090:
  3128  000450  501E               	movf	___fladd@aexp^0,w,c
  3129  000452  B4D8               	btfsc	status,2,c
  3130  000454  EF2E  F002         	goto	u2141
  3131  000458  EF30  F002         	goto	u2140
  3132  00045C                     u2141:
  3133  00045C  EF5B  F002         	goto	l2935
  3134  000460                     u2140:
  3135  000460  0E01               	movlw	1
  3136  000462  2611               	addwf	___fladd@b^0,f,c
  3137  000464  0E00               	movlw	0
  3138  000466  2212               	addwfc	(___fladd@b+1)^0,f,c
  3139  000468  2213               	addwfc	(___fladd@b+2)^0,f,c
  3140  00046A  2214               	addwfc	(___fladd@b+3)^0,f,c
  3141  00046C  A014               	btfss	(___fladd@b+3)^0,0,c
  3142  00046E  EF3B  F002         	goto	u2151
  3143  000472  EF3D  F002         	goto	u2150
  3144  000476                     u2151:
  3145  000476  EF5B  F002         	goto	l2935
  3146  00047A                     u2150:
  3147  00047A  C011  F019         	movff	___fladd@b,??___fladd
  3148  00047E  C012  F01A         	movff	___fladd@b+1,??___fladd+1
  3149  000482  C013  F01B         	movff	___fladd@b+2,??___fladd+2
  3150  000486  C014  F01C         	movff	___fladd@b+3,??___fladd+3
  3151  00048A  341C               	rlcf	(??___fladd+3)^0,w,c
  3152  00048C  321C               	rrcf	(??___fladd+3)^0,f,c
  3153  00048E  321B               	rrcf	(??___fladd+2)^0,f,c
  3154  000490  321A               	rrcf	(??___fladd+1)^0,f,c
  3155  000492  3219               	rrcf	??___fladd^0,f,c
  3156  000494  C019  F011         	movff	??___fladd,___fladd@b
  3157  000498  C01A  F012         	movff	??___fladd+1,___fladd@b+1
  3158  00049C  C01B  F013         	movff	??___fladd+2,___fladd@b+2
  3159  0004A0  C01C  F014         	movff	??___fladd+3,___fladd@b+3
  3160  0004A4  281F               	incf	___fladd@bexp^0,w,c
  3161  0004A6  B4D8               	btfsc	status,2,c
  3162  0004A8  EF58  F002         	goto	u2161
  3163  0004AC  EF5A  F002         	goto	u2160
  3164  0004B0                     u2161:
  3165  0004B0  EF5B  F002         	goto	l2935
  3166  0004B4                     u2160:
  3167  0004B4  2A1F               	incf	___fladd@bexp^0,f,c
  3168  0004B6                     l2935:
  3169  0004B6  281F               	incf	___fladd@bexp^0,w,c
  3170  0004B8  B4D8               	btfsc	status,2,c
  3171  0004BA  EF61  F002         	goto	u2171
  3172  0004BE  EF63  F002         	goto	u2170
  3173  0004C2                     u2171:
  3174  0004C2  EF6B  F002         	goto	l2939
  3175  0004C6                     u2170:
  3176  0004C6  501F               	movf	___fladd@bexp^0,w,c
  3177  0004C8  A4D8               	btfss	status,2,c
  3178  0004CA  EF69  F002         	goto	u2181
  3179  0004CE  EF6B  F002         	goto	u2180
  3180  0004D2                     u2181:
  3181  0004D2  EF7D  F002         	goto	l2943
  3182  0004D6                     u2180:
  3183  0004D6                     l2939:
  3184  0004D6  0E00               	movlw	0
  3185  0004D8  6E11               	movwf	___fladd@b^0,c
  3186  0004DA  0E00               	movlw	0
  3187  0004DC  6E12               	movwf	(___fladd@b+1)^0,c
  3188  0004DE  0E00               	movlw	0
  3189  0004E0  6E13               	movwf	(___fladd@b+2)^0,c
  3190  0004E2  0E00               	movlw	0
  3191  0004E4  6E14               	movwf	(___fladd@b+3)^0,c
  3192  0004E6  501F               	movf	___fladd@bexp^0,w,c
  3193  0004E8  A4D8               	btfss	status,2,c
  3194  0004EA  EF79  F002         	goto	u2191
  3195  0004EE  EF7B  F002         	goto	u2190
  3196  0004F2                     u2191:
  3197  0004F2  EF7D  F002         	goto	l2943
  3198  0004F6                     u2190:
  3199  0004F6  0E00               	movlw	0
  3200  0004F8  6E1D               	movwf	___fladd@signs^0,c
  3201  0004FA                     l2943:
  3202  0004FA  A01F               	btfss	___fladd@bexp^0,0,c
  3203  0004FC  EF82  F002         	goto	u2201
  3204  000500  EF84  F002         	goto	u2200
  3205  000504                     u2201:
  3206  000504  EF87  F002         	goto	l2947
  3207  000508                     u2200:
  3208  000508  8E13               	bsf	(___fladd@b+2)^0,7,c
  3209  00050A  EF88  F002         	goto	l2949
  3210  00050E                     l2947:
  3211  00050E  9E13               	bcf	(___fladd@b+2)^0,7,c
  3212  000510                     l2949:
  3213  000510  90D8               	bcf	status,0,c
  3214  000512  301F               	rrcf	___fladd@bexp^0,w,c
  3215  000514  6E14               	movwf	(___fladd@b+3)^0,c
  3216  000516  AE1D               	btfss	___fladd@signs^0,7,c
  3217  000518  EF90  F002         	goto	u2211
  3218  00051C  EF92  F002         	goto	u2210
  3219  000520                     u2211:
  3220  000520  EF93  F002         	goto	l2955
  3221  000524                     u2210:
  3222  000524  8E14               	bsf	(___fladd@b+3)^0,7,c
  3223  000526                     l2955:
  3224  000526  C011  F011         	movff	___fladd@b,?___fladd
  3225  00052A  C012  F012         	movff	___fladd@b+1,?___fladd+1
  3226  00052E  C013  F013         	movff	___fladd@b+2,?___fladd+2
  3227  000532  C014  F014         	movff	___fladd@b+3,?___fladd+3
  3228  000536                     l1073:
  3229  000536  0012               	return		;funcret
  3230  000538                     __end_of___fladd:
  3231                           	opt callstack 0
  3232                           
  3233 ;; *************** function _ADC_SelectChannel *****************
  3234 ;; Defined at:
  3235 ;;		line 79 in file "mcc_generated_files/adc.c"
  3236 ;; Parameters:    Size  Location     Type
  3237 ;;  channel         1    wreg     enum E2706
  3238 ;; Auto vars:     Size  Location     Type
  3239 ;;  channel         1   17[COMRAM] enum E2706
  3240 ;; Return value:  Size  Location     Type
  3241 ;;                  1    wreg      void 
  3242 ;; Registers used:
  3243 ;;		wreg, status,2, status,0
  3244 ;; Tracked objects:
  3245 ;;		On entry : 0/0
  3246 ;;		On exit  : 0/0
  3247 ;;		Unchanged: 0/0
  3248 ;; Data sizes:     COMRAM   BANK0   BANK1   BANK2   BANK3   BANK4   BANK5
  3249 ;;      Params:         0       0       0       0       0       0       0
  3250 ;;      Locals:         1       0       0       0       0       0       0
  3251 ;;      Temps:          1       0       0       0       0       0       0
  3252 ;;      Totals:         2       0       0       0       0       0       0
  3253 ;;Total ram usage:        2 bytes
  3254 ;; Hardware stack levels used:    1
  3255 ;; Hardware stack levels required when called:    6
  3256 ;; This function calls:
  3257 ;;		Nothing
  3258 ;; This function is called by:
  3259 ;;		_readTemperatureSensor
  3260 ;; This function uses a non-reentrant model
  3261 ;;
  3262                           
  3263                           	psect	text8
  3264  0019C0                     __ptext8:
  3265                           	opt callstack 0
  3266  0019C0                     _ADC_SelectChannel:
  3267                           	opt callstack 23
  3268                           
  3269                           ;incstack = 0
  3270                           ;ADC_SelectChannel@channel stored from wreg
  3271  0019C0  6E12               	movwf	ADC_SelectChannel@channel^0,c
  3272  0019C2                     
  3273                           ;mcc_generated_files/adc.c: 79: void ADC_SelectChannel(adc_channel_t channel);mcc_genera
      +                          ted_files/adc.c: 80: {;mcc_generated_files/adc.c: 82:     ADCON0bits.CHS = channel;
  3274  0019C2  C012  F011         	movff	ADC_SelectChannel@channel,??_ADC_SelectChannel
  3275  0019C6  4611               	rlncf	??_ADC_SelectChannel^0,f,c
  3276  0019C8  4611               	rlncf	??_ADC_SelectChannel^0,f,c
  3277  0019CA  50C2               	movf	194,w,c	;volatile
  3278  0019CC  1811               	xorwf	??_ADC_SelectChannel^0,w,c
  3279  0019CE  0BC3               	andlw	-61
  3280  0019D0  1811               	xorwf	??_ADC_SelectChannel^0,w,c
  3281  0019D2  6EC2               	movwf	194,c	;volatile
  3282  0019D4                     
  3283                           ;mcc_generated_files/adc.c: 84:     ADCON0bits.ADON = 1;
  3284  0019D4  80C2               	bsf	194,0,c	;volatile
  3285  0019D6  0012               	return		;funcret
  3286  0019D8                     __end_of_ADC_SelectChannel:
  3287                           	opt callstack 0
  3288                           
  3289 ;; *************** function _ADCRead *****************
  3290 ;; Defined at:
  3291 ;;		line 27 in file "tempreature_sensor_driver.c"
  3292 ;; Parameters:    Size  Location     Type
  3293 ;;		None
  3294 ;; Auto vars:     Size  Location     Type
  3295 ;;		None
  3296 ;; Return value:  Size  Location     Type
  3297 ;;                  2   20[COMRAM] unsigned int 
  3298 ;; Registers used:
  3299 ;;		wreg, status,2, status,0, cstack
  3300 ;; Tracked objects:
  3301 ;;		On entry : 0/0
  3302 ;;		On exit  : 0/0
  3303 ;;		Unchanged: 0/0
  3304 ;; Data sizes:     COMRAM   BANK0   BANK1   BANK2   BANK3   BANK4   BANK5
  3305 ;;      Params:         2       0       0       0       0       0       0
  3306 ;;      Locals:         0       0       0       0       0       0       0
  3307 ;;      Temps:          0       0       0       0       0       0       0
  3308 ;;      Totals:         2       0       0       0       0       0       0
  3309 ;;Total ram usage:        2 bytes
  3310 ;; Hardware stack levels used:    1
  3311 ;; Hardware stack levels required when called:    7
  3312 ;; This function calls:
  3313 ;;		_ADC_GetConversionResult
  3314 ;;		_ADC_IsConversionDone
  3315 ;;		_ADC_StartConversion
  3316 ;; This function is called by:
  3317 ;;		_readTemperatureSensor
  3318 ;; This function uses a non-reentrant model
  3319 ;;
  3320                           
  3321                           	psect	text9
  3322  00191C                     __ptext9:
  3323                           	opt callstack 0
  3324  00191C                     _ADCRead:
  3325                           	opt callstack 22
  3326  00191C                     
  3327                           ;tempreature_sensor_driver.c: 29:     ADC_StartConversion();
  3328  00191C  EC46  F00D         	call	_ADC_StartConversion	;wreg free
  3329  001920                     l2729:
  3330                           
  3331                           ;tempreature_sensor_driver.c: 30:     while(!ADC_IsConversionDone())
  3332  001920  ECF7  F00C         	call	_ADC_IsConversionDone	;wreg free
  3333  001924  0900               	iorlw	0
  3334  001926  B4D8               	btfsc	status,2,c
  3335  001928  EF98  F00C         	goto	u1771
  3336  00192C  EF9A  F00C         	goto	u1770
  3337  001930                     u1771:
  3338  001930  EF90  F00C         	goto	l2729
  3339  001934                     u1770:
  3340  001934                     
  3341                           ;tempreature_sensor_driver.c: 34:     return ADC_GetConversionResult();
  3342  001934  EC01  F00D         	call	_ADC_GetConversionResult	;wreg free
  3343  001938  C011  F015         	movff	?_ADC_GetConversionResult,?_ADCRead
  3344  00193C  C012  F016         	movff	?_ADC_GetConversionResult+1,?_ADCRead+1
  3345  001940  0012               	return		;funcret
  3346  001942                     __end_of_ADCRead:
  3347                           	opt callstack 0
  3348                           
  3349 ;; *************** function _ADC_StartConversion *****************
  3350 ;; Defined at:
  3351 ;;		line 87 in file "mcc_generated_files/adc.c"
  3352 ;; Parameters:    Size  Location     Type
  3353 ;;		None
  3354 ;; Auto vars:     Size  Location     Type
  3355 ;;		None
  3356 ;; Return value:  Size  Location     Type
  3357 ;;                  1    wreg      void 
  3358 ;; Registers used:
  3359 ;;		None
  3360 ;; Tracked objects:
  3361 ;;		On entry : 0/0
  3362 ;;		On exit  : 0/0
  3363 ;;		Unchanged: 0/0
  3364 ;; Data sizes:     COMRAM   BANK0   BANK1   BANK2   BANK3   BANK4   BANK5
  3365 ;;      Params:         0       0       0       0       0       0       0
  3366 ;;      Locals:         0       0       0       0       0       0       0
  3367 ;;      Temps:          0       0       0       0       0       0       0
  3368 ;;      Totals:         0       0       0       0       0       0       0
  3369 ;;Total ram usage:        0 bytes
  3370 ;; Hardware stack levels used:    1
  3371 ;; Hardware stack levels required when called:    6
  3372 ;; This function calls:
  3373 ;;		Nothing
  3374 ;; This function is called by:
  3375 ;;		_ADCRead
  3376 ;; This function uses a non-reentrant model
  3377 ;;
  3378                           
  3379                           	psect	text10
  3380  001A8C                     __ptext10:
  3381                           	opt callstack 0
  3382  001A8C                     _ADC_StartConversion:
  3383                           	opt callstack 22
  3384  001A8C                     
  3385                           ;mcc_generated_files/adc.c: 90:     ADCON0bits.GO_nDONE = 1;
  3386  001A8C  82C2               	bsf	194,1,c	;volatile
  3387  001A8E  0012               	return		;funcret
  3388  001A90                     __end_of_ADC_StartConversion:
  3389                           	opt callstack 0
  3390                           
  3391 ;; *************** function _ADC_IsConversionDone *****************
  3392 ;; Defined at:
  3393 ;;		line 94 in file "mcc_generated_files/adc.c"
  3394 ;; Parameters:    Size  Location     Type
  3395 ;;		None
  3396 ;; Auto vars:     Size  Location     Type
  3397 ;;		None
  3398 ;; Return value:  Size  Location     Type
  3399 ;;                  1    wreg      _Bool 
  3400 ;; Registers used:
  3401 ;;		wreg
  3402 ;; Tracked objects:
  3403 ;;		On entry : 0/0
  3404 ;;		On exit  : 0/0
  3405 ;;		Unchanged: 0/0
  3406 ;; Data sizes:     COMRAM   BANK0   BANK1   BANK2   BANK3   BANK4   BANK5
  3407 ;;      Params:         0       0       0       0       0       0       0
  3408 ;;      Locals:         0       0       0       0       0       0       0
  3409 ;;      Temps:          0       0       0       0       0       0       0
  3410 ;;      Totals:         0       0       0       0       0       0       0
  3411 ;;Total ram usage:        0 bytes
  3412 ;; Hardware stack levels used:    1
  3413 ;; Hardware stack levels required when called:    6
  3414 ;; This function calls:
  3415 ;;		Nothing
  3416 ;; This function is called by:
  3417 ;;		_ADCRead
  3418 ;; This function uses a non-reentrant model
  3419 ;;
  3420                           
  3421                           	psect	text11
  3422  0019EE                     __ptext11:
  3423                           	opt callstack 0
  3424  0019EE                     _ADC_IsConversionDone:
  3425                           	opt callstack 22
  3426  0019EE                     
  3427                           ;mcc_generated_files/adc.c: 97:     return (!ADCON0bits.GO_nDONE);
  3428  0019EE  A2C2               	btfss	194,1,c	;volatile
  3429  0019F0  EFFC  F00C         	goto	u1711
  3430  0019F4  EFFF  F00C         	goto	u1710
  3431  0019F8                     u1711:
  3432  0019F8  0E01               	movlw	1
  3433  0019FA  EF00  F00D         	goto	u1720
  3434  0019FE                     u1710:
  3435  0019FE  0E00               	movlw	0
  3436  001A00                     u1720:
  3437  001A00  0012               	return		;funcret
  3438  001A02                     __end_of_ADC_IsConversionDone:
  3439                           	opt callstack 0
  3440                           
  3441 ;; *************** function _ADC_GetConversionResult *****************
  3442 ;; Defined at:
  3443 ;;		line 100 in file "mcc_generated_files/adc.c"
  3444 ;; Parameters:    Size  Location     Type
  3445 ;;		None
  3446 ;; Auto vars:     Size  Location     Type
  3447 ;;		None
  3448 ;; Return value:  Size  Location     Type
  3449 ;;                  2   16[COMRAM] unsigned short 
  3450 ;; Registers used:
  3451 ;;		wreg, status,2, status,0
  3452 ;; Tracked objects:
  3453 ;;		On entry : 0/0
  3454 ;;		On exit  : 0/0
  3455 ;;		Unchanged: 0/0
  3456 ;; Data sizes:     COMRAM   BANK0   BANK1   BANK2   BANK3   BANK4   BANK5
  3457 ;;      Params:         2       0       0       0       0       0       0
  3458 ;;      Locals:         0       0       0       0       0       0       0
  3459 ;;      Temps:          2       0       0       0       0       0       0
  3460 ;;      Totals:         4       0       0       0       0       0       0
  3461 ;;Total ram usage:        4 bytes
  3462 ;; Hardware stack levels used:    1
  3463 ;; Hardware stack levels required when called:    6
  3464 ;; This function calls:
  3465 ;;		Nothing
  3466 ;; This function is called by:
  3467 ;;		_ADCRead
  3468 ;; This function uses a non-reentrant model
  3469 ;;
  3470                           
  3471                           	psect	text12
  3472  001A02                     __ptext12:
  3473                           	opt callstack 0
  3474  001A02                     _ADC_GetConversionResult:
  3475                           	opt callstack 22
  3476  001A02                     
  3477                           ;mcc_generated_files/adc.c: 103:     return ((ADRESH << 8) + ADRESL);
  3478  001A02  50C4               	movf	196,w,c	;volatile
  3479  001A04  6E14               	movwf	(??_ADC_GetConversionResult+1)^0,c
  3480  001A06  6A13               	clrf	??_ADC_GetConversionResult^0,c
  3481  001A08  50C3               	movf	195,w,c	;volatile
  3482  001A0A  2413               	addwf	??_ADC_GetConversionResult^0,w,c
  3483  001A0C  6E11               	movwf	?_ADC_GetConversionResult^0,c
  3484  001A0E  0E00               	movlw	0
  3485  001A10  2014               	addwfc	(??_ADC_GetConversionResult+1)^0,w,c
  3486  001A12  6E12               	movwf	(?_ADC_GetConversionResult+1)^0,c
  3487  001A14  0012               	return		;funcret
  3488  001A16                     __end_of_ADC_GetConversionResult:
  3489                           	opt callstack 0
  3490                           
  3491 ;; *************** function _readSoilMin *****************
  3492 ;; Defined at:
  3493 ;;		line 11 in file "memory_manager.c"
  3494 ;; Parameters:    Size  Location     Type
  3495 ;;  temp            2   17[COMRAM] PTR int 
  3496 ;;		 -> min_soil_temp(2), 
  3497 ;; Auto vars:     Size  Location     Type
  3498 ;;  t               2   23[COMRAM] int 
  3499 ;; Return value:  Size  Location     Type
  3500 ;;                  1    wreg      void 
  3501 ;; Registers used:
  3502 ;;		wreg, fsr2l, fsr2h, status,2, status,0, cstack
  3503 ;; Tracked objects:
  3504 ;;		On entry : 0/0
  3505 ;;		On exit  : 0/0
  3506 ;;		Unchanged: 0/0
  3507 ;; Data sizes:     COMRAM   BANK0   BANK1   BANK2   BANK3   BANK4   BANK5
  3508 ;;      Params:         2       0       0       0       0       0       0
  3509 ;;      Locals:         2       0       0       0       0       0       0
  3510 ;;      Temps:          4       0       0       0       0       0       0
  3511 ;;      Totals:         8       0       0       0       0       0       0
  3512 ;;Total ram usage:        8 bytes
  3513 ;; Hardware stack levels used:    1
  3514 ;; Hardware stack levels required when called:    7
  3515 ;; This function calls:
  3516 ;;		_DATAEE_ReadByte
  3517 ;; This function is called by:
  3518 ;;		_main
  3519 ;; This function uses a non-reentrant model
  3520 ;;
  3521                           
  3522                           	psect	text13
  3523  0017C4                     __ptext13:
  3524                           	opt callstack 0
  3525  0017C4                     _readSoilMin:
  3526                           	opt callstack 23
  3527  0017C4                     
  3528                           ;memory_manager.c: 11: void readSoilMin(int * temp);memory_manager.c: 12: {;memory_manag
      +                          er.c: 13:      int t;;memory_manager.c: 14:     t = (DATAEE_ReadByte(2) << 8) & DATAEE_R
      +                          eadByte(3);
  3529  0017C4  0E03               	movlw	3
  3530  0017C6  EC0B  F00D         	call	_DATAEE_ReadByte
  3531  0017CA  6E14               	movwf	??_readSoilMin^0,c
  3532  0017CC  0E02               	movlw	2
  3533  0017CE  EC0B  F00D         	call	_DATAEE_ReadByte
  3534  0017D2  6E15               	movwf	(??_readSoilMin+1)^0,c
  3535  0017D4  5015               	movf	(??_readSoilMin+1)^0,w,c
  3536  0017D6  6E17               	movwf	(??_readSoilMin+3)^0,c
  3537  0017D8  6A16               	clrf	(??_readSoilMin+2)^0,c
  3538  0017DA  5014               	movf	??_readSoilMin^0,w,c
  3539  0017DC  1416               	andwf	(??_readSoilMin+2)^0,w,c
  3540  0017DE  6E18               	movwf	readSoilMin@t^0,c
  3541  0017E0  0E00               	movlw	0
  3542  0017E2  1417               	andwf	(??_readSoilMin+3)^0,w,c
  3543  0017E4  6E19               	movwf	(readSoilMin@t+1)^0,c
  3544  0017E6                     
  3545                           ;memory_manager.c: 15:     *temp = t;
  3546  0017E6  C012  FFD9         	movff	readSoilMin@temp,fsr2l
  3547  0017EA  C013  FFDA         	movff	readSoilMin@temp+1,fsr2h
  3548  0017EE  C018  FFDE         	movff	readSoilMin@t,postinc2
  3549  0017F2  C019  FFDD         	movff	readSoilMin@t+1,postdec2
  3550  0017F6  0012               	return		;funcret
  3551  0017F8                     __end_of_readSoilMin:
  3552                           	opt callstack 0
  3553                           
  3554 ;; *************** function _readSoilMax *****************
  3555 ;; Defined at:
  3556 ;;		line 4 in file "memory_manager.c"
  3557 ;; Parameters:    Size  Location     Type
  3558 ;;  temp            2   17[COMRAM] PTR int 
  3559 ;;		 -> max_soil_temp(2), 
  3560 ;; Auto vars:     Size  Location     Type
  3561 ;;  t               2   23[COMRAM] int 
  3562 ;; Return value:  Size  Location     Type
  3563 ;;                  1    wreg      void 
  3564 ;; Registers used:
  3565 ;;		wreg, fsr2l, fsr2h, status,2, status,0, cstack
  3566 ;; Tracked objects:
  3567 ;;		On entry : 0/0
  3568 ;;		On exit  : 0/0
  3569 ;;		Unchanged: 0/0
  3570 ;; Data sizes:     COMRAM   BANK0   BANK1   BANK2   BANK3   BANK4   BANK5
  3571 ;;      Params:         2       0       0       0       0       0       0
  3572 ;;      Locals:         2       0       0       0       0       0       0
  3573 ;;      Temps:          4       0       0       0       0       0       0
  3574 ;;      Totals:         8       0       0       0       0       0       0
  3575 ;;Total ram usage:        8 bytes
  3576 ;; Hardware stack levels used:    1
  3577 ;; Hardware stack levels required when called:    7
  3578 ;; This function calls:
  3579 ;;		_DATAEE_ReadByte
  3580 ;; This function is called by:
  3581 ;;		_main
  3582 ;; This function uses a non-reentrant model
  3583 ;;
  3584                           
  3585                           	psect	text14
  3586  0017F8                     __ptext14:
  3587                           	opt callstack 0
  3588  0017F8                     _readSoilMax:
  3589                           	opt callstack 23
  3590  0017F8                     
  3591                           ;memory_manager.c: 4: void readSoilMax(int * temp);memory_manager.c: 5: {;memory_manager
      +                          .c: 6:     int t;;memory_manager.c: 7:     t = (DATAEE_ReadByte(0) << 8) & DATAEE_ReadBy
      +                          te(1);
  3592  0017F8  0E01               	movlw	1
  3593  0017FA  EC0B  F00D         	call	_DATAEE_ReadByte
  3594  0017FE  6E14               	movwf	??_readSoilMax^0,c
  3595  001800  0E00               	movlw	0
  3596  001802  EC0B  F00D         	call	_DATAEE_ReadByte
  3597  001806  6E15               	movwf	(??_readSoilMax+1)^0,c
  3598  001808  5015               	movf	(??_readSoilMax+1)^0,w,c
  3599  00180A  6E17               	movwf	(??_readSoilMax+3)^0,c
  3600  00180C  6A16               	clrf	(??_readSoilMax+2)^0,c
  3601  00180E  5014               	movf	??_readSoilMax^0,w,c
  3602  001810  1416               	andwf	(??_readSoilMax+2)^0,w,c
  3603  001812  6E18               	movwf	readSoilMax@t^0,c
  3604  001814  0E00               	movlw	0
  3605  001816  1417               	andwf	(??_readSoilMax+3)^0,w,c
  3606  001818  6E19               	movwf	(readSoilMax@t+1)^0,c
  3607  00181A                     
  3608                           ;memory_manager.c: 8:     *temp = t;
  3609  00181A  C012  FFD9         	movff	readSoilMax@temp,fsr2l
  3610  00181E  C013  FFDA         	movff	readSoilMax@temp+1,fsr2h
  3611  001822  C018  FFDE         	movff	readSoilMax@t,postinc2
  3612  001826  C019  FFDD         	movff	readSoilMax@t+1,postdec2
  3613  00182A  0012               	return		;funcret
  3614  00182C                     __end_of_readSoilMax:
  3615                           	opt callstack 0
  3616                           
  3617 ;; *************** function _readPlateMax *****************
  3618 ;; Defined at:
  3619 ;;		line 18 in file "memory_manager.c"
  3620 ;; Parameters:    Size  Location     Type
  3621 ;;  temp            2   17[COMRAM] PTR int 
  3622 ;;		 -> max_plate_temp(2), 
  3623 ;; Auto vars:     Size  Location     Type
  3624 ;;  t               2   23[COMRAM] int 
  3625 ;; Return value:  Size  Location     Type
  3626 ;;                  1    wreg      void 
  3627 ;; Registers used:
  3628 ;;		wreg, fsr2l, fsr2h, status,2, status,0, cstack
  3629 ;; Tracked objects:
  3630 ;;		On entry : 0/0
  3631 ;;		On exit  : 0/0
  3632 ;;		Unchanged: 0/0
  3633 ;; Data sizes:     COMRAM   BANK0   BANK1   BANK2   BANK3   BANK4   BANK5
  3634 ;;      Params:         2       0       0       0       0       0       0
  3635 ;;      Locals:         2       0       0       0       0       0       0
  3636 ;;      Temps:          4       0       0       0       0       0       0
  3637 ;;      Totals:         8       0       0       0       0       0       0
  3638 ;;Total ram usage:        8 bytes
  3639 ;; Hardware stack levels used:    1
  3640 ;; Hardware stack levels required when called:    7
  3641 ;; This function calls:
  3642 ;;		_DATAEE_ReadByte
  3643 ;; This function is called by:
  3644 ;;		_main
  3645 ;; This function uses a non-reentrant model
  3646 ;;
  3647                           
  3648                           	psect	text15
  3649  00182C                     __ptext15:
  3650                           	opt callstack 0
  3651  00182C                     _readPlateMax:
  3652                           	opt callstack 23
  3653  00182C                     
  3654                           ;memory_manager.c: 18: void readPlateMax(int * temp);memory_manager.c: 19: {;memory_mana
      +                          ger.c: 20:      int t;;memory_manager.c: 21:     t = (DATAEE_ReadByte(4) << 8) & DATAEE_
      +                          ReadByte(5);
  3655  00182C  0E05               	movlw	5
  3656  00182E  EC0B  F00D         	call	_DATAEE_ReadByte
  3657  001832  6E14               	movwf	??_readPlateMax^0,c
  3658  001834  0E04               	movlw	4
  3659  001836  EC0B  F00D         	call	_DATAEE_ReadByte
  3660  00183A  6E15               	movwf	(??_readPlateMax+1)^0,c
  3661  00183C  5015               	movf	(??_readPlateMax+1)^0,w,c
  3662  00183E  6E17               	movwf	(??_readPlateMax+3)^0,c
  3663  001840  6A16               	clrf	(??_readPlateMax+2)^0,c
  3664  001842  5014               	movf	??_readPlateMax^0,w,c
  3665  001844  1416               	andwf	(??_readPlateMax+2)^0,w,c
  3666  001846  6E18               	movwf	readPlateMax@t^0,c
  3667  001848  0E00               	movlw	0
  3668  00184A  1417               	andwf	(??_readPlateMax+3)^0,w,c
  3669  00184C  6E19               	movwf	(readPlateMax@t+1)^0,c
  3670  00184E                     
  3671                           ;memory_manager.c: 22:     *temp = t;
  3672  00184E  C012  FFD9         	movff	readPlateMax@temp,fsr2l
  3673  001852  C013  FFDA         	movff	readPlateMax@temp+1,fsr2h
  3674  001856  C018  FFDE         	movff	readPlateMax@t,postinc2
  3675  00185A  C019  FFDD         	movff	readPlateMax@t+1,postdec2
  3676  00185E  0012               	return		;funcret
  3677  001860                     __end_of_readPlateMax:
  3678                           	opt callstack 0
  3679                           
  3680 ;; *************** function _readInternalMax *****************
  3681 ;; Defined at:
  3682 ;;		line 26 in file "memory_manager.c"
  3683 ;; Parameters:    Size  Location     Type
  3684 ;;  temp            2   17[COMRAM] PTR int 
  3685 ;;		 -> max_internal_temp(2), 
  3686 ;; Auto vars:     Size  Location     Type
  3687 ;;  t               2   23[COMRAM] int 
  3688 ;; Return value:  Size  Location     Type
  3689 ;;                  1    wreg      void 
  3690 ;; Registers used:
  3691 ;;		wreg, fsr2l, fsr2h, status,2, status,0, cstack
  3692 ;; Tracked objects:
  3693 ;;		On entry : 0/0
  3694 ;;		On exit  : 0/0
  3695 ;;		Unchanged: 0/0
  3696 ;; Data sizes:     COMRAM   BANK0   BANK1   BANK2   BANK3   BANK4   BANK5
  3697 ;;      Params:         2       0       0       0       0       0       0
  3698 ;;      Locals:         2       0       0       0       0       0       0
  3699 ;;      Temps:          4       0       0       0       0       0       0
  3700 ;;      Totals:         8       0       0       0       0       0       0
  3701 ;;Total ram usage:        8 bytes
  3702 ;; Hardware stack levels used:    1
  3703 ;; Hardware stack levels required when called:    7
  3704 ;; This function calls:
  3705 ;;		_DATAEE_ReadByte
  3706 ;; This function is called by:
  3707 ;;		_main
  3708 ;; This function uses a non-reentrant model
  3709 ;;
  3710                           
  3711                           	psect	text16
  3712  001860                     __ptext16:
  3713                           	opt callstack 0
  3714  001860                     _readInternalMax:
  3715                           	opt callstack 23
  3716  001860                     
  3717                           ;memory_manager.c: 26: void readInternalMax(int * temp);memory_manager.c: 27: {;memory_m
      +                          anager.c: 28:      int t;;memory_manager.c: 29:     t = (DATAEE_ReadByte(6) << 8) & DATA
      +                          EE_ReadByte(7);
  3718  001860  0E07               	movlw	7
  3719  001862  EC0B  F00D         	call	_DATAEE_ReadByte
  3720  001866  6E14               	movwf	??_readInternalMax^0,c
  3721  001868  0E06               	movlw	6
  3722  00186A  EC0B  F00D         	call	_DATAEE_ReadByte
  3723  00186E  6E15               	movwf	(??_readInternalMax+1)^0,c
  3724  001870  5015               	movf	(??_readInternalMax+1)^0,w,c
  3725  001872  6E17               	movwf	(??_readInternalMax+3)^0,c
  3726  001874  6A16               	clrf	(??_readInternalMax+2)^0,c
  3727  001876  5014               	movf	??_readInternalMax^0,w,c
  3728  001878  1416               	andwf	(??_readInternalMax+2)^0,w,c
  3729  00187A  6E18               	movwf	readInternalMax@t^0,c
  3730  00187C  0E00               	movlw	0
  3731  00187E  1417               	andwf	(??_readInternalMax+3)^0,w,c
  3732  001880  6E19               	movwf	(readInternalMax@t+1)^0,c
  3733  001882                     
  3734                           ;memory_manager.c: 30:     *temp = t;
  3735  001882  C012  FFD9         	movff	readInternalMax@temp,fsr2l
  3736  001886  C013  FFDA         	movff	readInternalMax@temp+1,fsr2h
  3737  00188A  C018  FFDE         	movff	readInternalMax@t,postinc2
  3738  00188E  C019  FFDD         	movff	readInternalMax@t+1,postdec2
  3739  001892  0012               	return		;funcret
  3740  001894                     __end_of_readInternalMax:
  3741                           	opt callstack 0
  3742                           
  3743 ;; *************** function _DATAEE_ReadByte *****************
  3744 ;; Defined at:
  3745 ;;		line 195 in file "mcc_generated_files/memory.c"
  3746 ;; Parameters:    Size  Location     Type
  3747 ;;  bAdd            1    wreg     unsigned char 
  3748 ;; Auto vars:     Size  Location     Type
  3749 ;;  bAdd            1   16[COMRAM] unsigned char 
  3750 ;; Return value:  Size  Location     Type
  3751 ;;                  1    wreg      unsigned char 
  3752 ;; Registers used:
  3753 ;;		wreg, status,2
  3754 ;; Tracked objects:
  3755 ;;		On entry : 0/0
  3756 ;;		On exit  : 0/0
  3757 ;;		Unchanged: 0/0
  3758 ;; Data sizes:     COMRAM   BANK0   BANK1   BANK2   BANK3   BANK4   BANK5
  3759 ;;      Params:         0       0       0       0       0       0       0
  3760 ;;      Locals:         1       0       0       0       0       0       0
  3761 ;;      Temps:          0       0       0       0       0       0       0
  3762 ;;      Totals:         1       0       0       0       0       0       0
  3763 ;;Total ram usage:        1 bytes
  3764 ;; Hardware stack levels used:    1
  3765 ;; Hardware stack levels required when called:    6
  3766 ;; This function calls:
  3767 ;;		Nothing
  3768 ;; This function is called by:
  3769 ;;		_readSoilMax
  3770 ;;		_readSoilMin
  3771 ;;		_readPlateMax
  3772 ;;		_readInternalMax
  3773 ;; This function uses a non-reentrant model
  3774 ;;
  3775                           
  3776                           	psect	text17
  3777  001A16                     __ptext17:
  3778                           	opt callstack 0
  3779  001A16                     _DATAEE_ReadByte:
  3780                           	opt callstack 23
  3781                           
  3782                           ;incstack = 0
  3783                           ;DATAEE_ReadByte@bAdd stored from wreg
  3784  001A16  6E11               	movwf	DATAEE_ReadByte@bAdd^0,c
  3785  001A18                     
  3786                           ;mcc_generated_files/memory.c: 195: uint8_t DATAEE_ReadByte(uint8_t bAdd);mcc_generated_
      +                          files/memory.c: 196: {;mcc_generated_files/memory.c: 197:     EEADR = (uint8_t)(bAdd & 0
      +                          xFF);
  3787  001A18  C011  FFA9         	movff	DATAEE_ReadByte@bAdd,4009	;volatile
  3788  001A1C                     
  3789                           ;mcc_generated_files/memory.c: 198:     EECON1bits.CFGS = 0;
  3790  001A1C  9CA6               	bcf	166,6,c	;volsfr
  3791  001A1E                     
  3792                           ;mcc_generated_files/memory.c: 199:     EECON1bits.EEPGD = 0;
  3793  001A1E  9EA6               	bcf	166,7,c	;volsfr
  3794  001A20                     
  3795                           ;mcc_generated_files/memory.c: 200:     EECON1bits.RD = 1;
  3796  001A20  80A6               	bsf	166,0,c	;volsfr
  3797  001A22                     
  3798                           ;mcc_generated_files/memory.c: 201:     __nop();
  3799  001A22  F000               	nop	
  3800  001A24                     
  3801                           ;mcc_generated_files/memory.c: 202:     __nop();
  3802  001A24  F000               	nop	
  3803  001A26                     
  3804                           ;mcc_generated_files/memory.c: 204:     return (EEDATA);
  3805  001A26  50A8               	movf	168,w,c	;volatile
  3806  001A28  0012               	return		;funcret
  3807  001A2A                     __end_of_DATAEE_ReadByte:
  3808                           	opt callstack 0
  3809                           
  3810 ;; *************** function _openDisplay *****************
  3811 ;; Defined at:
  3812 ;;		line 20 in file "segmentDisplayDriver.c"
  3813 ;; Parameters:    Size  Location     Type
  3814 ;;		None
  3815 ;; Auto vars:     Size  Location     Type
  3816 ;;		None
  3817 ;; Return value:  Size  Location     Type
  3818 ;;                  1    wreg      void 
  3819 ;; Registers used:
  3820 ;;		wreg, status,2
  3821 ;; Tracked objects:
  3822 ;;		On entry : 0/0
  3823 ;;		On exit  : 0/0
  3824 ;;		Unchanged: 0/0
  3825 ;; Data sizes:     COMRAM   BANK0   BANK1   BANK2   BANK3   BANK4   BANK5
  3826 ;;      Params:         0       0       0       0       0       0       0
  3827 ;;      Locals:         0       0       0       0       0       0       0
  3828 ;;      Temps:          0       0       0       0       0       0       0
  3829 ;;      Totals:         0       0       0       0       0       0       0
  3830 ;;Total ram usage:        0 bytes
  3831 ;; Hardware stack levels used:    1
  3832 ;; Hardware stack levels required when called:    6
  3833 ;; This function calls:
  3834 ;;		Nothing
  3835 ;; This function is called by:
  3836 ;;		_main
  3837 ;;		_PrintTemp
  3838 ;; This function uses a non-reentrant model
  3839 ;;
  3840                           
  3841                           	psect	text18
  3842  001A48                     __ptext18:
  3843                           	opt callstack 0
  3844  001A48                     _openDisplay:
  3845                           	opt callstack 24
  3846  001A48                     
  3847                           ;segmentDisplayDriver.c: 22:     DisplayOn = 1;
  3848  001A48  0E00               	movlw	0
  3849  001A4A  6E4D               	movwf	(_DisplayOn+1)^0,c
  3850  001A4C  0E01               	movlw	1
  3851  001A4E  6E4C               	movwf	_DisplayOn^0,c
  3852  001A50  0012               	return		;funcret
  3853  001A52                     __end_of_openDisplay:
  3854                           	opt callstack 0
  3855                           
  3856 ;; *************** function ___fltol *****************
  3857 ;; Defined at:
  3858 ;;		line 43 in file "D:\programs\pic\sources\c99\common\fltol.c"
  3859 ;; Parameters:    Size  Location     Type
  3860 ;;  f1              4   39[BANK0 ] void 
  3861 ;; Auto vars:     Size  Location     Type
  3862 ;;  exp1            1   60[COMRAM] unsigned char 
  3863 ;;  sign1           1   59[COMRAM] unsigned char 
  3864 ;; Return value:  Size  Location     Type
  3865 ;;                  4   39[BANK0 ] long 
  3866 ;; Registers used:
  3867 ;;		wreg, status,2, status,0
  3868 ;; Tracked objects:
  3869 ;;		On entry : 0/0
  3870 ;;		On exit  : 0/0
  3871 ;;		Unchanged: 0/0
  3872 ;; Data sizes:     COMRAM   BANK0   BANK1   BANK2   BANK3   BANK4   BANK5
  3873 ;;      Params:         0       4       0       0       0       0       0
  3874 ;;      Locals:         2       0       0       0       0       0       0
  3875 ;;      Temps:          0       4       0       0       0       0       0
  3876 ;;      Totals:         2       8       0       0       0       0       0
  3877 ;;Total ram usage:       10 bytes
  3878 ;; Hardware stack levels used:    1
  3879 ;; Hardware stack levels required when called:    6
  3880 ;; This function calls:
  3881 ;;		Nothing
  3882 ;; This function is called by:
  3883 ;;		_main
  3884 ;; This function uses a non-reentrant model
  3885 ;;
  3886                           
  3887                           	psect	text19
  3888  00128C                     __ptext19:
  3889                           	opt callstack 0
  3890  00128C                     ___fltol:
  3891                           	opt callstack 24
  3892  00128C  0100               	movlb	0	; () banked
  3893  00128E  3589               	rlcf	(___fltol@f1+2)& (0+255),w,b
  3894  001290  358A               	rlcf	(___fltol@f1+3)& (0+255),w,b
  3895  001292  6E3D               	movwf	___fltol@exp1^0,c
  3896  001294  503D               	movf	___fltol@exp1^0,w,c
  3897  001296  A4D8               	btfss	status,2,c
  3898  001298  EF50  F009         	goto	u3191
  3899  00129C  EF52  F009         	goto	u3190
  3900  0012A0                     u3191:
  3901  0012A0  EF5C  F009         	goto	l3715
  3902  0012A4                     u3190:
  3903  0012A4                     l3711:
  3904                           
  3905                           ; BSR set to: 0
  3906  0012A4  0E00               	movlw	0
  3907  0012A6  6F87               	movwf	?___fltol& (0+255),b
  3908  0012A8  0E00               	movlw	0
  3909  0012AA  6F88               	movwf	(?___fltol+1)& (0+255),b
  3910  0012AC  0E00               	movlw	0
  3911  0012AE  6F89               	movwf	(?___fltol+2)& (0+255),b
  3912  0012B0  0E00               	movlw	0
  3913  0012B2  6F8A               	movwf	(?___fltol+3)& (0+255),b
  3914  0012B4  EFC9  F009         	goto	l833
  3915  0012B8                     l3715:
  3916                           
  3917                           ; BSR set to: 0
  3918  0012B8  C087  F08B         	movff	___fltol@f1,??___fltol
  3919  0012BC  C088  F08C         	movff	___fltol@f1+1,??___fltol+1
  3920  0012C0  C089  F08D         	movff	___fltol@f1+2,??___fltol+2
  3921  0012C4  C08A  F08E         	movff	___fltol@f1+3,??___fltol+3
  3922  0012C8  0E20               	movlw	32
  3923  0012CA  EF6C  F009         	goto	u3200
  3924  0012CE                     u3205:
  3925  0012CE  90D8               	bcf	status,0,c
  3926  0012D0  338E               	rrcf	(??___fltol+3)& (0+255),f,b
  3927  0012D2  338D               	rrcf	(??___fltol+2)& (0+255),f,b
  3928  0012D4  338C               	rrcf	(??___fltol+1)& (0+255),f,b
  3929  0012D6  338B               	rrcf	??___fltol& (0+255),f,b
  3930  0012D8                     u3200:
  3931  0012D8  2EE8               	decfsz	wreg,f,c
  3932  0012DA  EF67  F009         	goto	u3205
  3933  0012DE  518B               	movf	??___fltol& (0+255),w,b
  3934  0012E0  6E3C               	movwf	___fltol@sign1^0,c
  3935  0012E2                     
  3936                           ; BSR set to: 0
  3937  0012E2  8F89               	bsf	(___fltol@f1+2)& (0+255),7,b
  3938  0012E4                     
  3939                           ; BSR set to: 0
  3940  0012E4  0EFF               	movlw	255
  3941  0012E6  1787               	andwf	___fltol@f1& (0+255),f,b
  3942  0012E8  0EFF               	movlw	255
  3943  0012EA  1788               	andwf	(___fltol@f1+1)& (0+255),f,b
  3944  0012EC  0EFF               	movlw	255
  3945  0012EE  1789               	andwf	(___fltol@f1+2)& (0+255),f,b
  3946  0012F0  0E00               	movlw	0
  3947  0012F2  178A               	andwf	(___fltol@f1+3)& (0+255),f,b
  3948  0012F4                     
  3949                           ; BSR set to: 0
  3950  0012F4  0E96               	movlw	150
  3951  0012F6  5E3D               	subwf	___fltol@exp1^0,f,c
  3952  0012F8                     
  3953                           ; BSR set to: 0
  3954  0012F8  BE3D               	btfsc	___fltol@exp1^0,7,c
  3955  0012FA  EF83  F009         	goto	u3210
  3956  0012FE  EF81  F009         	goto	u3211
  3957  001302                     u3211:
  3958  001302  EF99  F009         	goto	l3735
  3959  001306                     u3210:
  3960  001306                     
  3961                           ; BSR set to: 0
  3962  001306  503D               	movf	___fltol@exp1^0,w,c
  3963  001308  0A80               	xorlw	128
  3964  00130A  0F97               	addlw	151
  3965  00130C  B0D8               	btfsc	status,0,c
  3966  00130E  EF8B  F009         	goto	u3221
  3967  001312  EF8D  F009         	goto	u3220
  3968  001316                     u3221:
  3969  001316  EF8F  F009         	goto	l3731
  3970  00131A                     u3220:
  3971  00131A  EF52  F009         	goto	l3711
  3972  00131E                     l3731:
  3973                           
  3974                           ; BSR set to: 0
  3975  00131E  90D8               	bcf	status,0,c
  3976  001320  338A               	rrcf	(___fltol@f1+3)& (0+255),f,b
  3977  001322  3389               	rrcf	(___fltol@f1+2)& (0+255),f,b
  3978  001324  3388               	rrcf	(___fltol@f1+1)& (0+255),f,b
  3979  001326  3387               	rrcf	___fltol@f1& (0+255),f,b
  3980  001328                     
  3981                           ; BSR set to: 0
  3982  001328  3E3D               	incfsz	___fltol@exp1^0,f,c
  3983  00132A  EF8F  F009         	goto	l3731
  3984  00132E  EFB1  F009         	goto	l3745
  3985  001332                     l3735:
  3986                           
  3987                           ; BSR set to: 0
  3988  001332  0E1F               	movlw	31
  3989  001334  643D               	cpfsgt	___fltol@exp1^0,c
  3990  001336  EF9F  F009         	goto	u3231
  3991  00133A  EFA1  F009         	goto	u3230
  3992  00133E                     u3231:
  3993  00133E  EFA9  F009         	goto	l3743
  3994  001342                     u3230:
  3995  001342  EF52  F009         	goto	l3711
  3996  001346                     l3741:
  3997                           
  3998                           ; BSR set to: 0
  3999  001346  90D8               	bcf	status,0,c
  4000  001348  3787               	rlcf	___fltol@f1& (0+255),f,b
  4001  00134A  3788               	rlcf	(___fltol@f1+1)& (0+255),f,b
  4002  00134C  3789               	rlcf	(___fltol@f1+2)& (0+255),f,b
  4003  00134E  378A               	rlcf	(___fltol@f1+3)& (0+255),f,b
  4004  001350  063D               	decf	___fltol@exp1^0,f,c
  4005  001352                     l3743:
  4006                           
  4007                           ; BSR set to: 0
  4008  001352  503D               	movf	___fltol@exp1^0,w,c
  4009  001354  A4D8               	btfss	status,2,c
  4010  001356  EFAF  F009         	goto	u3241
  4011  00135A  EFB1  F009         	goto	u3240
  4012  00135E                     u3241:
  4013  00135E  EFA3  F009         	goto	l3741
  4014  001362                     u3240:
  4015  001362                     l3745:
  4016                           
  4017                           ; BSR set to: 0
  4018  001362  503C               	movf	___fltol@sign1^0,w,c
  4019  001364  B4D8               	btfsc	status,2,c
  4020  001366  EFB7  F009         	goto	u3251
  4021  00136A  EFB9  F009         	goto	u3250
  4022  00136E                     u3251:
  4023  00136E  EFC1  F009         	goto	l3749
  4024  001372                     u3250:
  4025  001372                     
  4026                           ; BSR set to: 0
  4027  001372  1F8A               	comf	(___fltol@f1+3)& (0+255),f,b
  4028  001374  1F89               	comf	(___fltol@f1+2)& (0+255),f,b
  4029  001376  1F88               	comf	(___fltol@f1+1)& (0+255),f,b
  4030  001378  6D87               	negf	___fltol@f1& (0+255),b
  4031  00137A  0E00               	movlw	0
  4032  00137C  2388               	addwfc	(___fltol@f1+1)& (0+255),f,b
  4033  00137E  2389               	addwfc	(___fltol@f1+2)& (0+255),f,b
  4034  001380  238A               	addwfc	(___fltol@f1+3)& (0+255),f,b
  4035  001382                     l3749:
  4036                           
  4037                           ; BSR set to: 0
  4038  001382  C087  F087         	movff	___fltol@f1,?___fltol
  4039  001386  C088  F088         	movff	___fltol@f1+1,?___fltol+1
  4040  00138A  C089  F089         	movff	___fltol@f1+2,?___fltol+2
  4041  00138E  C08A  F08A         	movff	___fltol@f1+3,?___fltol+3
  4042  001392                     l833:
  4043                           
  4044                           ; BSR set to: 0
  4045  001392  0012               	return		;funcret
  4046  001394                     __end_of___fltol:
  4047                           	opt callstack 0
  4048                           
  4049 ;; *************** function _TMR2_StartTimer *****************
  4050 ;; Defined at:
  4051 ;;		line 88 in file "mcc_generated_files/tmr2.c"
  4052 ;; Parameters:    Size  Location     Type
  4053 ;;		None
  4054 ;; Auto vars:     Size  Location     Type
  4055 ;;		None
  4056 ;; Return value:  Size  Location     Type
  4057 ;;                  1    wreg      void 
  4058 ;; Registers used:
  4059 ;;		None
  4060 ;; Tracked objects:
  4061 ;;		On entry : 0/0
  4062 ;;		On exit  : 0/0
  4063 ;;		Unchanged: 0/0
  4064 ;; Data sizes:     COMRAM   BANK0   BANK1   BANK2   BANK3   BANK4   BANK5
  4065 ;;      Params:         0       0       0       0       0       0       0
  4066 ;;      Locals:         0       0       0       0       0       0       0
  4067 ;;      Temps:          0       0       0       0       0       0       0
  4068 ;;      Totals:         0       0       0       0       0       0       0
  4069 ;;Total ram usage:        0 bytes
  4070 ;; Hardware stack levels used:    1
  4071 ;; Hardware stack levels required when called:    6
  4072 ;; This function calls:
  4073 ;;		Nothing
  4074 ;; This function is called by:
  4075 ;;		_main
  4076 ;; This function uses a non-reentrant model
  4077 ;;
  4078                           
  4079                           	psect	text20
  4080  001A90                     __ptext20:
  4081                           	opt callstack 0
  4082  001A90                     _TMR2_StartTimer:
  4083                           	opt callstack 24
  4084  001A90                     
  4085                           ;mcc_generated_files/tmr2.c: 91:     T2CONbits.TMR2ON = 1;
  4086  001A90  84CA               	bsf	202,2,c	;volatile
  4087  001A92  0012               	return		;funcret
  4088  001A94                     __end_of_TMR2_StartTimer:
  4089                           	opt callstack 0
  4090                           
  4091 ;; *************** function _SYSTEM_Initialize *****************
  4092 ;; Defined at:
  4093 ;;		line 50 in file "mcc_generated_files/mcc.c"
  4094 ;; Parameters:    Size  Location     Type
  4095 ;;		None
  4096 ;; Auto vars:     Size  Location     Type
  4097 ;;		None
  4098 ;; Return value:  Size  Location     Type
  4099 ;;                  1    wreg      void 
  4100 ;; Registers used:
  4101 ;;		wreg, status,2, status,0, cstack
  4102 ;; Tracked objects:
  4103 ;;		On entry : 0/0
  4104 ;;		On exit  : 0/0
  4105 ;;		Unchanged: 0/0
  4106 ;; Data sizes:     COMRAM   BANK0   BANK1   BANK2   BANK3   BANK4   BANK5
  4107 ;;      Params:         0       0       0       0       0       0       0
  4108 ;;      Locals:         0       0       0       0       0       0       0
  4109 ;;      Temps:          0       0       0       0       0       0       0
  4110 ;;      Totals:         0       0       0       0       0       0       0
  4111 ;;Total ram usage:        0 bytes
  4112 ;; Hardware stack levels used:    1
  4113 ;; Hardware stack levels required when called:    8
  4114 ;; This function calls:
  4115 ;;		_ADC_Initialize
  4116 ;;		_INTERRUPT_Initialize
  4117 ;;		_OSCILLATOR_Initialize
  4118 ;;		_PIN_MANAGER_Initialize
  4119 ;;		_TMR2_Initialize
  4120 ;;		_TMR3_Initialize
  4121 ;; This function is called by:
  4122 ;;		_main
  4123 ;; This function uses a non-reentrant model
  4124 ;;
  4125                           
  4126                           	psect	text21
  4127  0019A6                     __ptext21:
  4128                           	opt callstack 0
  4129  0019A6                     _SYSTEM_Initialize:
  4130                           	opt callstack 22
  4131  0019A6                     
  4132                           ;mcc_generated_files/mcc.c: 53:     INTERRUPT_Initialize();
  4133  0019A6  EC4A  F00D         	call	_INTERRUPT_Initialize	;wreg free
  4134  0019AA                     
  4135                           ;mcc_generated_files/mcc.c: 54:     PIN_MANAGER_Initialize();
  4136  0019AA  ECC7  F00B         	call	_PIN_MANAGER_Initialize	;wreg free
  4137  0019AE                     
  4138                           ;mcc_generated_files/mcc.c: 55:     OSCILLATOR_Initialize();
  4139  0019AE  EC33  F00D         	call	_OSCILLATOR_Initialize	;wreg free
  4140  0019B2                     
  4141                           ;mcc_generated_files/mcc.c: 56:     TMR3_Initialize();
  4142  0019B2  ECA1  F00C         	call	_TMR3_Initialize	;wreg free
  4143  0019B6                     
  4144                           ;mcc_generated_files/mcc.c: 57:     TMR2_Initialize();
  4145  0019B6  ECC4  F00C         	call	_TMR2_Initialize	;wreg free
  4146  0019BA                     
  4147                           ;mcc_generated_files/mcc.c: 58:     ADC_Initialize();
  4148  0019BA  ECEC  F00C         	call	_ADC_Initialize	;wreg free
  4149  0019BE  0012               	return		;funcret
  4150  0019C0                     __end_of_SYSTEM_Initialize:
  4151                           	opt callstack 0
  4152                           
  4153 ;; *************** function _TMR3_Initialize *****************
  4154 ;; Defined at:
  4155 ;;		line 66 in file "mcc_generated_files/tmr3.c"
  4156 ;; Parameters:    Size  Location     Type
  4157 ;;		None
  4158 ;; Auto vars:     Size  Location     Type
  4159 ;;		None
  4160 ;; Return value:  Size  Location     Type
  4161 ;;                  1    wreg      void 
  4162 ;; Registers used:
  4163 ;;		wreg, status,2, status,0, cstack
  4164 ;; Tracked objects:
  4165 ;;		On entry : 0/0
  4166 ;;		On exit  : 0/0
  4167 ;;		Unchanged: 0/0
  4168 ;; Data sizes:     COMRAM   BANK0   BANK1   BANK2   BANK3   BANK4   BANK5
  4169 ;;      Params:         0       0       0       0       0       0       0
  4170 ;;      Locals:         0       0       0       0       0       0       0
  4171 ;;      Temps:          0       0       0       0       0       0       0
  4172 ;;      Totals:         0       0       0       0       0       0       0
  4173 ;;Total ram usage:        0 bytes
  4174 ;; Hardware stack levels used:    1
  4175 ;; Hardware stack levels required when called:    7
  4176 ;; This function calls:
  4177 ;;		_TMR3_SetInterruptHandler
  4178 ;; This function is called by:
  4179 ;;		_SYSTEM_Initialize
  4180 ;; This function uses a non-reentrant model
  4181 ;;
  4182                           
  4183                           	psect	text22
  4184  001942                     __ptext22:
  4185                           	opt callstack 0
  4186  001942                     _TMR3_Initialize:
  4187                           	opt callstack 22
  4188  001942                     
  4189                           ;mcc_generated_files/tmr3.c: 71:   TMR3H = 0xFF;
  4190  001942  68B3               	setf	179,c	;volatile
  4191  001944                     
  4192                           ;mcc_generated_files/tmr3.c: 74:   TMR3L = 0x06;
  4193  001944  0E06               	movlw	6
  4194  001946  6EB2               	movwf	178,c	;volatile
  4195  001948                     
  4196                           ;mcc_generated_files/tmr3.c: 77:     timer3ReloadVal=TMR3;
  4197  001948  CFB2 F046          	movff	4018,_timer3ReloadVal	;volatile
  4198  00194C  CFB3 F047          	movff	4019,_timer3ReloadVal+1	;volatile
  4199  001950                     
  4200                           ;mcc_generated_files/tmr3.c: 80:     PIR2bits.TMR3IF = 0;
  4201  001950  92A1               	bcf	161,1,c	;volatile
  4202  001952                     
  4203                           ;mcc_generated_files/tmr3.c: 83:     PIE2bits.TMR3IE = 1;
  4204  001952  82A0               	bsf	160,1,c	;volatile
  4205  001954                     
  4206                           ;mcc_generated_files/tmr3.c: 86:     TMR3_SetInterruptHandler(TMR3_DefaultInterruptHandl
      +                          er);
  4207  001954  0EB4               	movlw	low _TMR3_DefaultInterruptHandler
  4208  001956  6E11               	movwf	TMR3_SetInterruptHandler@InterruptHandler^0,c
  4209  001958  0E16               	movlw	high _TMR3_DefaultInterruptHandler
  4210  00195A  6E12               	movwf	(TMR3_SetInterruptHandler@InterruptHandler+1)^0,c
  4211  00195C  EC29  F00D         	call	_TMR3_SetInterruptHandler	;wreg free
  4212  001960                     
  4213                           ;mcc_generated_files/tmr3.c: 89:     T3CON = 0x01;
  4214  001960  0E01               	movlw	1
  4215  001962  6EB1               	movwf	177,c	;volatile
  4216  001964  0012               	return		;funcret
  4217  001966                     __end_of_TMR3_Initialize:
  4218                           	opt callstack 0
  4219                           
  4220 ;; *************** function _TMR3_SetInterruptHandler *****************
  4221 ;; Defined at:
  4222 ;;		line 169 in file "mcc_generated_files/tmr3.c"
  4223 ;; Parameters:    Size  Location     Type
  4224 ;;  InterruptHan    2   16[COMRAM] PTR FTN()void 
  4225 ;;		 -> TMR3_DefaultInterruptHandler(1), 
  4226 ;; Auto vars:     Size  Location     Type
  4227 ;;		None
  4228 ;; Return value:  Size  Location     Type
  4229 ;;                  1    wreg      void 
  4230 ;; Registers used:
  4231 ;;		wreg, status,2, status,0
  4232 ;; Tracked objects:
  4233 ;;		On entry : 0/0
  4234 ;;		On exit  : 0/0
  4235 ;;		Unchanged: 0/0
  4236 ;; Data sizes:     COMRAM   BANK0   BANK1   BANK2   BANK3   BANK4   BANK5
  4237 ;;      Params:         2       0       0       0       0       0       0
  4238 ;;      Locals:         0       0       0       0       0       0       0
  4239 ;;      Temps:          0       0       0       0       0       0       0
  4240 ;;      Totals:         2       0       0       0       0       0       0
  4241 ;;Total ram usage:        2 bytes
  4242 ;; Hardware stack levels used:    1
  4243 ;; Hardware stack levels required when called:    6
  4244 ;; This function calls:
  4245 ;;		Nothing
  4246 ;; This function is called by:
  4247 ;;		_TMR3_Initialize
  4248 ;; This function uses a non-reentrant model
  4249 ;;
  4250                           
  4251                           	psect	text23
  4252  001A52                     __ptext23:
  4253                           	opt callstack 0
  4254  001A52                     _TMR3_SetInterruptHandler:
  4255                           	opt callstack 22
  4256  001A52                     
  4257                           ;mcc_generated_files/tmr3.c: 170:     TMR3_InterruptHandler = InterruptHandler;
  4258  001A52  C011  F0A3         	movff	TMR3_SetInterruptHandler@InterruptHandler,_TMR3_InterruptHandler
  4259  001A56  C012  F0A4         	movff	TMR3_SetInterruptHandler@InterruptHandler+1,_TMR3_InterruptHandler+1
  4260  001A5A  0012               	return		;funcret
  4261  001A5C                     __end_of_TMR3_SetInterruptHandler:
  4262                           	opt callstack 0
  4263                           
  4264 ;; *************** function _TMR2_Initialize *****************
  4265 ;; Defined at:
  4266 ;;		line 65 in file "mcc_generated_files/tmr2.c"
  4267 ;; Parameters:    Size  Location     Type
  4268 ;;		None
  4269 ;; Auto vars:     Size  Location     Type
  4270 ;;		None
  4271 ;; Return value:  Size  Location     Type
  4272 ;;                  1    wreg      void 
  4273 ;; Registers used:
  4274 ;;		wreg, status,2, status,0, cstack
  4275 ;; Tracked objects:
  4276 ;;		On entry : 0/0
  4277 ;;		On exit  : 0/0
  4278 ;;		Unchanged: 0/0
  4279 ;; Data sizes:     COMRAM   BANK0   BANK1   BANK2   BANK3   BANK4   BANK5
  4280 ;;      Params:         0       0       0       0       0       0       0
  4281 ;;      Locals:         0       0       0       0       0       0       0
  4282 ;;      Temps:          0       0       0       0       0       0       0
  4283 ;;      Totals:         0       0       0       0       0       0       0
  4284 ;;Total ram usage:        0 bytes
  4285 ;; Hardware stack levels used:    1
  4286 ;; Hardware stack levels required when called:    7
  4287 ;; This function calls:
  4288 ;;		_TMR2_SetInterruptHandler
  4289 ;; This function is called by:
  4290 ;;		_SYSTEM_Initialize
  4291 ;; This function uses a non-reentrant model
  4292 ;;
  4293                           
  4294                           	psect	text24
  4295  001988                     __ptext24:
  4296                           	opt callstack 0
  4297  001988                     _TMR2_Initialize:
  4298                           	opt callstack 22
  4299  001988                     
  4300                           ;mcc_generated_files/tmr2.c: 70:     PR2 = 0x3E;
  4301  001988  0E3E               	movlw	62
  4302  00198A  6ECB               	movwf	203,c	;volatile
  4303                           
  4304                           ;mcc_generated_files/tmr2.c: 73:     TMR2 = 0x00;
  4305  00198C  0E00               	movlw	0
  4306  00198E  6ECC               	movwf	204,c	;volatile
  4307  001990                     
  4308                           ;mcc_generated_files/tmr2.c: 76:     PIR1bits.TMR2IF = 0;
  4309  001990  929E               	bcf	158,1,c	;volatile
  4310  001992                     
  4311                           ;mcc_generated_files/tmr2.c: 79:     PIE1bits.TMR2IE = 1;
  4312  001992  829D               	bsf	157,1,c	;volatile
  4313  001994                     
  4314                           ;mcc_generated_files/tmr2.c: 82:     TMR2_SetInterruptHandler(TMR2_DefaultInterruptHandl
      +                          er);
  4315  001994  0E82               	movlw	low _TMR2_DefaultInterruptHandler
  4316  001996  6E11               	movwf	TMR2_SetInterruptHandler@InterruptHandler^0,c
  4317  001998  0E1A               	movlw	high _TMR2_DefaultInterruptHandler
  4318  00199A  6E12               	movwf	(TMR2_SetInterruptHandler@InterruptHandler+1)^0,c
  4319  00199C  EC2E  F00D         	call	_TMR2_SetInterruptHandler	;wreg free
  4320  0019A0                     
  4321                           ;mcc_generated_files/tmr2.c: 85:     T2CON = 0x05;
  4322  0019A0  0E05               	movlw	5
  4323  0019A2  6ECA               	movwf	202,c	;volatile
  4324  0019A4  0012               	return		;funcret
  4325  0019A6                     __end_of_TMR2_Initialize:
  4326                           	opt callstack 0
  4327                           
  4328 ;; *************** function _TMR2_SetInterruptHandler *****************
  4329 ;; Defined at:
  4330 ;;		line 141 in file "mcc_generated_files/tmr2.c"
  4331 ;; Parameters:    Size  Location     Type
  4332 ;;  InterruptHan    2   16[COMRAM] PTR FTN()void 
  4333 ;;		 -> TMR2_DefaultInterruptHandler(1), 
  4334 ;; Auto vars:     Size  Location     Type
  4335 ;;		None
  4336 ;; Return value:  Size  Location     Type
  4337 ;;                  1    wreg      void 
  4338 ;; Registers used:
  4339 ;;		wreg, status,2, status,0
  4340 ;; Tracked objects:
  4341 ;;		On entry : 0/0
  4342 ;;		On exit  : 0/0
  4343 ;;		Unchanged: 0/0
  4344 ;; Data sizes:     COMRAM   BANK0   BANK1   BANK2   BANK3   BANK4   BANK5
  4345 ;;      Params:         2       0       0       0       0       0       0
  4346 ;;      Locals:         0       0       0       0       0       0       0
  4347 ;;      Temps:          0       0       0       0       0       0       0
  4348 ;;      Totals:         2       0       0       0       0       0       0
  4349 ;;Total ram usage:        2 bytes
  4350 ;; Hardware stack levels used:    1
  4351 ;; Hardware stack levels required when called:    6
  4352 ;; This function calls:
  4353 ;;		Nothing
  4354 ;; This function is called by:
  4355 ;;		_TMR2_Initialize
  4356 ;; This function uses a non-reentrant model
  4357 ;;
  4358                           
  4359                           	psect	text25
  4360  001A5C                     __ptext25:
  4361                           	opt callstack 0
  4362  001A5C                     _TMR2_SetInterruptHandler:
  4363                           	opt callstack 22
  4364  001A5C                     
  4365                           ;mcc_generated_files/tmr2.c: 142:     TMR2_InterruptHandler = InterruptHandler;
  4366  001A5C  C011  F0A5         	movff	TMR2_SetInterruptHandler@InterruptHandler,_TMR2_InterruptHandler
  4367  001A60  C012  F0A6         	movff	TMR2_SetInterruptHandler@InterruptHandler+1,_TMR2_InterruptHandler+1
  4368  001A64  0012               	return		;funcret
  4369  001A66                     __end_of_TMR2_SetInterruptHandler:
  4370                           	opt callstack 0
  4371                           
  4372 ;; *************** function _PIN_MANAGER_Initialize *****************
  4373 ;; Defined at:
  4374 ;;		line 55 in file "mcc_generated_files/pin_manager.c"
  4375 ;; Parameters:    Size  Location     Type
  4376 ;;		None
  4377 ;; Auto vars:     Size  Location     Type
  4378 ;;		None
  4379 ;; Return value:  Size  Location     Type
  4380 ;;                  1    wreg      void 
  4381 ;; Registers used:
  4382 ;;		wreg, status,2
  4383 ;; Tracked objects:
  4384 ;;		On entry : 0/0
  4385 ;;		On exit  : 0/0
  4386 ;;		Unchanged: 0/0
  4387 ;; Data sizes:     COMRAM   BANK0   BANK1   BANK2   BANK3   BANK4   BANK5
  4388 ;;      Params:         0       0       0       0       0       0       0
  4389 ;;      Locals:         0       0       0       0       0       0       0
  4390 ;;      Temps:          0       0       0       0       0       0       0
  4391 ;;      Totals:         0       0       0       0       0       0       0
  4392 ;;Total ram usage:        0 bytes
  4393 ;; Hardware stack levels used:    1
  4394 ;; Hardware stack levels required when called:    6
  4395 ;; This function calls:
  4396 ;;		Nothing
  4397 ;; This function is called by:
  4398 ;;		_SYSTEM_Initialize
  4399 ;; This function uses a non-reentrant model
  4400 ;;
  4401                           
  4402                           	psect	text26
  4403  00178E                     __ptext26:
  4404                           	opt callstack 0
  4405  00178E                     _PIN_MANAGER_Initialize:
  4406                           	opt callstack 23
  4407  00178E                     
  4408                           ;mcc_generated_files/pin_manager.c: 60:     LATE = 0x00;
  4409  00178E  0E00               	movlw	0
  4410  001790  6E8D               	movwf	141,c	;volatile
  4411                           
  4412                           ;mcc_generated_files/pin_manager.c: 61:     LATD = 0x00;
  4413  001792  0E00               	movlw	0
  4414  001794  6E8C               	movwf	140,c	;volatile
  4415                           
  4416                           ;mcc_generated_files/pin_manager.c: 62:     LATA = 0x00;
  4417  001796  0E00               	movlw	0
  4418  001798  6E89               	movwf	137,c	;volatile
  4419                           
  4420                           ;mcc_generated_files/pin_manager.c: 63:     LATB = 0x00;
  4421  00179A  0E00               	movlw	0
  4422  00179C  6E8A               	movwf	138,c	;volatile
  4423                           
  4424                           ;mcc_generated_files/pin_manager.c: 64:     LATC = 0x00;
  4425  00179E  0E00               	movlw	0
  4426  0017A0  6E8B               	movwf	139,c	;volatile
  4427                           
  4428                           ;mcc_generated_files/pin_manager.c: 69:     TRISE = 0x00;
  4429  0017A2  0E00               	movlw	0
  4430  0017A4  6E96               	movwf	150,c	;volatile
  4431                           
  4432                           ;mcc_generated_files/pin_manager.c: 70:     TRISA = 0x0F;
  4433  0017A6  0E0F               	movlw	15
  4434  0017A8  6E92               	movwf	146,c	;volatile
  4435                           
  4436                           ;mcc_generated_files/pin_manager.c: 71:     TRISB = 0x00;
  4437  0017AA  0E00               	movlw	0
  4438  0017AC  6E93               	movwf	147,c	;volatile
  4439                           
  4440                           ;mcc_generated_files/pin_manager.c: 72:     TRISC = 0xFC;
  4441  0017AE  0EFC               	movlw	252
  4442  0017B0  6E94               	movwf	148,c	;volatile
  4443                           
  4444                           ;mcc_generated_files/pin_manager.c: 73:     TRISD = 0xF8;
  4445  0017B2  0EF8               	movlw	248
  4446  0017B4  6E95               	movwf	149,c	;volatile
  4447  0017B6                     
  4448                           ;mcc_generated_files/pin_manager.c: 78:     ANSEL = 0xFF;
  4449  0017B6  687E               	setf	126,c	;volatile
  4450                           
  4451                           ;mcc_generated_files/pin_manager.c: 79:     ANSELH = 0x1F;
  4452  0017B8  0E1F               	movlw	31
  4453  0017BA  6E7F               	movwf	127,c	;volatile
  4454                           
  4455                           ;mcc_generated_files/pin_manager.c: 84:     WPUB = 0x00;
  4456  0017BC  0E00               	movlw	0
  4457  0017BE  6E7C               	movwf	124,c	;volatile
  4458  0017C0                     
  4459                           ;mcc_generated_files/pin_manager.c: 85:     INTCON2bits.nRBPU = 1;
  4460  0017C0  8EF1               	bsf	241,7,c	;volatile
  4461  0017C2  0012               	return		;funcret
  4462  0017C4                     __end_of_PIN_MANAGER_Initialize:
  4463                           	opt callstack 0
  4464                           
  4465 ;; *************** function _OSCILLATOR_Initialize *****************
  4466 ;; Defined at:
  4467 ;;		line 61 in file "mcc_generated_files/mcc.c"
  4468 ;; Parameters:    Size  Location     Type
  4469 ;;		None
  4470 ;; Auto vars:     Size  Location     Type
  4471 ;;		None
  4472 ;; Return value:  Size  Location     Type
  4473 ;;                  1    wreg      void 
  4474 ;; Registers used:
  4475 ;;		wreg, status,2
  4476 ;; Tracked objects:
  4477 ;;		On entry : 0/0
  4478 ;;		On exit  : 0/0
  4479 ;;		Unchanged: 0/0
  4480 ;; Data sizes:     COMRAM   BANK0   BANK1   BANK2   BANK3   BANK4   BANK5
  4481 ;;      Params:         0       0       0       0       0       0       0
  4482 ;;      Locals:         0       0       0       0       0       0       0
  4483 ;;      Temps:          0       0       0       0       0       0       0
  4484 ;;      Totals:         0       0       0       0       0       0       0
  4485 ;;Total ram usage:        0 bytes
  4486 ;; Hardware stack levels used:    1
  4487 ;; Hardware stack levels required when called:    6
  4488 ;; This function calls:
  4489 ;;		Nothing
  4490 ;; This function is called by:
  4491 ;;		_SYSTEM_Initialize
  4492 ;; This function uses a non-reentrant model
  4493 ;;
  4494                           
  4495                           	psect	text27
  4496  001A66                     __ptext27:
  4497                           	opt callstack 0
  4498  001A66                     _OSCILLATOR_Initialize:
  4499                           	opt callstack 23
  4500  001A66                     
  4501                           ;mcc_generated_files/mcc.c: 64:     OSCCON = 0x30;
  4502  001A66  0E30               	movlw	48
  4503  001A68  6ED3               	movwf	211,c	;volatile
  4504                           
  4505                           ;mcc_generated_files/mcc.c: 66:     OSCTUNE = 0x00;
  4506  001A6A  0E00               	movlw	0
  4507  001A6C  6E9B               	movwf	155,c	;volatile
  4508  001A6E  0012               	return		;funcret
  4509  001A70                     __end_of_OSCILLATOR_Initialize:
  4510                           	opt callstack 0
  4511                           
  4512 ;; *************** function _INTERRUPT_Initialize *****************
  4513 ;; Defined at:
  4514 ;;		line 52 in file "mcc_generated_files/interrupt_manager.c"
  4515 ;; Parameters:    Size  Location     Type
  4516 ;;		None
  4517 ;; Auto vars:     Size  Location     Type
  4518 ;;		None
  4519 ;; Return value:  Size  Location     Type
  4520 ;;                  1    wreg      void 
  4521 ;; Registers used:
  4522 ;;		None
  4523 ;; Tracked objects:
  4524 ;;		On entry : 0/0
  4525 ;;		On exit  : 0/0
  4526 ;;		Unchanged: 0/0
  4527 ;; Data sizes:     COMRAM   BANK0   BANK1   BANK2   BANK3   BANK4   BANK5
  4528 ;;      Params:         0       0       0       0       0       0       0
  4529 ;;      Locals:         0       0       0       0       0       0       0
  4530 ;;      Temps:          0       0       0       0       0       0       0
  4531 ;;      Totals:         0       0       0       0       0       0       0
  4532 ;;Total ram usage:        0 bytes
  4533 ;; Hardware stack levels used:    1
  4534 ;; Hardware stack levels required when called:    6
  4535 ;; This function calls:
  4536 ;;		Nothing
  4537 ;; This function is called by:
  4538 ;;		_SYSTEM_Initialize
  4539 ;; This function uses a non-reentrant model
  4540 ;;
  4541                           
  4542                           	psect	text28
  4543  001A94                     __ptext28:
  4544                           	opt callstack 0
  4545  001A94                     _INTERRUPT_Initialize:
  4546                           	opt callstack 23
  4547  001A94                     
  4548                           ;mcc_generated_files/interrupt_manager.c: 55:     RCONbits.IPEN = 0;
  4549  001A94  9ED0               	bcf	208,7,c	;volatile
  4550  001A96  0012               	return		;funcret
  4551  001A98                     __end_of_INTERRUPT_Initialize:
  4552                           	opt callstack 0
  4553                           
  4554 ;; *************** function _ADC_Initialize *****************
  4555 ;; Defined at:
  4556 ;;		line 58 in file "mcc_generated_files/adc.c"
  4557 ;; Parameters:    Size  Location     Type
  4558 ;;		None
  4559 ;; Auto vars:     Size  Location     Type
  4560 ;;		None
  4561 ;; Return value:  Size  Location     Type
  4562 ;;                  1    wreg      void 
  4563 ;; Registers used:
  4564 ;;		wreg, status,2
  4565 ;; Tracked objects:
  4566 ;;		On entry : 0/0
  4567 ;;		On exit  : 0/0
  4568 ;;		Unchanged: 0/0
  4569 ;; Data sizes:     COMRAM   BANK0   BANK1   BANK2   BANK3   BANK4   BANK5
  4570 ;;      Params:         0       0       0       0       0       0       0
  4571 ;;      Locals:         0       0       0       0       0       0       0
  4572 ;;      Temps:          0       0       0       0       0       0       0
  4573 ;;      Totals:         0       0       0       0       0       0       0
  4574 ;;Total ram usage:        0 bytes
  4575 ;; Hardware stack levels used:    1
  4576 ;; Hardware stack levels required when called:    6
  4577 ;; This function calls:
  4578 ;;		Nothing
  4579 ;; This function is called by:
  4580 ;;		_SYSTEM_Initialize
  4581 ;; This function uses a non-reentrant model
  4582 ;;
  4583                           
  4584                           	psect	text29
  4585  0019D8                     __ptext29:
  4586                           	opt callstack 0
  4587  0019D8                     _ADC_Initialize:
  4588                           	opt callstack 23
  4589  0019D8                     
  4590                           ;mcc_generated_files/adc.c: 63:     ADCON0 = 0x01;
  4591  0019D8  0E01               	movlw	1
  4592  0019DA  6EC2               	movwf	194,c	;volatile
  4593                           
  4594                           ;mcc_generated_files/adc.c: 66:     ADCON1 = 0x00;
  4595  0019DC  0E00               	movlw	0
  4596  0019DE  6EC1               	movwf	193,c	;volatile
  4597                           
  4598                           ;mcc_generated_files/adc.c: 69:     ADCON2 = 0x07;
  4599  0019E0  0E07               	movlw	7
  4600  0019E2  6EC0               	movwf	192,c	;volatile
  4601                           
  4602                           ;mcc_generated_files/adc.c: 72:     ADRESL = 0x00;
  4603  0019E4  0E00               	movlw	0
  4604  0019E6  6EC3               	movwf	195,c	;volatile
  4605                           
  4606                           ;mcc_generated_files/adc.c: 75:     ADRESH = 0x00;
  4607  0019E8  0E00               	movlw	0
  4608  0019EA  6EC4               	movwf	196,c	;volatile
  4609  0019EC  0012               	return		;funcret
  4610  0019EE                     __end_of_ADC_Initialize:
  4611                           	opt callstack 0
  4612                           
  4613 ;; *************** function _INTERRUPT_InterruptManager *****************
  4614 ;; Defined at:
  4615 ;;		line 58 in file "mcc_generated_files/interrupt_manager.c"
  4616 ;; Parameters:    Size  Location     Type
  4617 ;;		None
  4618 ;; Auto vars:     Size  Location     Type
  4619 ;;		None
  4620 ;; Return value:  Size  Location     Type
  4621 ;;                  1    wreg      void 
  4622 ;; Registers used:
  4623 ;;		wreg, status,2, status,0, pclath, tosl, cstack
  4624 ;; Tracked objects:
  4625 ;;		On entry : 0/0
  4626 ;;		On exit  : 0/0
  4627 ;;		Unchanged: 0/0
  4628 ;; Data sizes:     COMRAM   BANK0   BANK1   BANK2   BANK3   BANK4   BANK5
  4629 ;;      Params:         0       0       0       0       0       0       0
  4630 ;;      Locals:         0       0       0       0       0       0       0
  4631 ;;      Temps:          2       0       0       0       0       0       0
  4632 ;;      Totals:         2       0       0       0       0       0       0
  4633 ;;Total ram usage:        2 bytes
  4634 ;; Hardware stack levels used:    1
  4635 ;; Hardware stack levels required when called:    5
  4636 ;; This function calls:
  4637 ;;		_TMR2_ISR
  4638 ;;		_TMR3_ISR
  4639 ;; This function is called by:
  4640 ;;		Interrupt level 2
  4641 ;; This function uses a non-reentrant model
  4642 ;;
  4643                           
  4644                           	psect	intcode
  4645  000008                     __pintcode:
  4646                           	opt callstack 0
  4647  000008                     _INTERRUPT_InterruptManager:
  4648                           	opt callstack 22
  4649                           
  4650                           ;incstack = 0
  4651  000008  824E               	bsf	int$flags,1,c	;set compiler interrupt flag (level 2)
  4652  00000A  CFFA F00F          	movff	pclath,??_INTERRUPT_InterruptManager
  4653  00000E  CFFB F010          	movff	pclatu,??_INTERRUPT_InterruptManager+1
  4654  000012                     
  4655                           ;mcc_generated_files/interrupt_manager.c: 61:     if(INTCONbits.PEIE == 1)
  4656  000012  ACF2               	btfss	242,6,c	;volatile
  4657  000014  EF0E  F000         	goto	i2u291_41
  4658  000018  EF10  F000         	goto	i2u291_40
  4659  00001C                     i2u291_41:
  4660  00001C  EF34  F000         	goto	i2l350
  4661  000020                     i2u291_40:
  4662  000020                     
  4663                           ;mcc_generated_files/interrupt_manager.c: 62:     {;mcc_generated_files/interrupt_manage
      +                          r.c: 63:         if(PIE2bits.TMR3IE == 1 && PIR2bits.TMR3IF == 1)
  4664  000020  A2A0               	btfss	160,1,c	;volatile
  4665  000022  EF15  F000         	goto	i2u292_41
  4666  000026  EF17  F000         	goto	i2u292_40
  4667  00002A                     i2u292_41:
  4668  00002A  EF22  F000         	goto	i2l345
  4669  00002E                     i2u292_40:
  4670  00002E  A2A1               	btfss	161,1,c	;volatile
  4671  000030  EF1C  F000         	goto	i2u293_41
  4672  000034  EF1E  F000         	goto	i2u293_40
  4673  000038                     i2u293_41:
  4674  000038  EF22  F000         	goto	i2l345
  4675  00003C                     i2u293_40:
  4676  00003C                     
  4677                           ;mcc_generated_files/interrupt_manager.c: 64:         {;mcc_generated_files/interrupt_ma
      +                          nager.c: 65:             TMR3_ISR();
  4678  00003C  EC15  F00D         	call	_TMR3_ISR	;wreg free
  4679                           
  4680                           ;mcc_generated_files/interrupt_manager.c: 66:         }
  4681  000040  EF34  F000         	goto	i2l350
  4682  000044                     i2l345:
  4683  000044  A29D               	btfss	157,1,c	;volatile
  4684  000046  EF27  F000         	goto	i2u294_41
  4685  00004A  EF29  F000         	goto	i2u294_40
  4686  00004E                     i2u294_41:
  4687  00004E  EF34  F000         	goto	i2l346
  4688  000052                     i2u294_40:
  4689  000052  A29E               	btfss	158,1,c	;volatile
  4690  000054  EF2E  F000         	goto	i2u295_41
  4691  000058  EF30  F000         	goto	i2u295_40
  4692  00005C                     i2u295_41:
  4693  00005C  EF34  F000         	goto	i2l346
  4694  000060                     i2u295_40:
  4695  000060                     
  4696                           ;mcc_generated_files/interrupt_manager.c: 68:         {;mcc_generated_files/interrupt_ma
      +                          nager.c: 69:             TMR2_ISR();
  4697  000060  EC3D  F00D         	call	_TMR2_ISR	;wreg free
  4698                           
  4699                           ;mcc_generated_files/interrupt_manager.c: 70:         }
  4700  000064  EF34  F000         	goto	i2l350
  4701  000068                     i2l346:
  4702  000068                     i2l350:
  4703  000068  C010  FFFB         	movff	??_INTERRUPT_InterruptManager+1,pclatu
  4704  00006C  C00F  FFFA         	movff	??_INTERRUPT_InterruptManager,pclath
  4705  000070  924E               	bcf	int$flags,1,c	;clear compiler interrupt flag (level 2)
  4706  000072  0011               	retfie		f
  4707  000074                     __end_of_INTERRUPT_InterruptManager:
  4708                           	opt callstack 0
  4709                           
  4710 ;; *************** function _TMR3_ISR *****************
  4711 ;; Defined at:
  4712 ;;		line 147 in file "mcc_generated_files/tmr3.c"
  4713 ;; Parameters:    Size  Location     Type
  4714 ;;		None
  4715 ;; Auto vars:     Size  Location     Type
  4716 ;;		None
  4717 ;; Return value:  Size  Location     Type
  4718 ;;                  1    wreg      void 
  4719 ;; Registers used:
  4720 ;;		wreg, status,2, status,0, pclath, tosl, cstack
  4721 ;; Tracked objects:
  4722 ;;		On entry : 0/0
  4723 ;;		On exit  : 0/0
  4724 ;;		Unchanged: 0/0
  4725 ;; Data sizes:     COMRAM   BANK0   BANK1   BANK2   BANK3   BANK4   BANK5
  4726 ;;      Params:         0       0       0       0       0       0       0
  4727 ;;      Locals:         0       0       0       0       0       0       0
  4728 ;;      Temps:          0       0       0       0       0       0       0
  4729 ;;      Totals:         0       0       0       0       0       0       0
  4730 ;;Total ram usage:        0 bytes
  4731 ;; Hardware stack levels used:    1
  4732 ;; Hardware stack levels required when called:    3
  4733 ;; This function calls:
  4734 ;;		_TMR3_CallBack
  4735 ;;		_TMR3_WriteTimer
  4736 ;; This function is called by:
  4737 ;;		_INTERRUPT_InterruptManager
  4738 ;; This function uses a non-reentrant model
  4739 ;;
  4740                           
  4741                           	psect	text31
  4742  001A2A                     __ptext31:
  4743                           	opt callstack 0
  4744  001A2A                     _TMR3_ISR:
  4745                           	opt callstack 23
  4746  001A2A                     
  4747                           ;mcc_generated_files/tmr3.c: 151:     PIR2bits.TMR3IF = 0;
  4748  001A2A  92A1               	bcf	161,1,c	;volatile
  4749  001A2C                     
  4750                           ;mcc_generated_files/tmr3.c: 152:     TMR3_WriteTimer(timer3ReloadVal);
  4751  001A2C  C046  F001         	movff	_timer3ReloadVal,TMR3_WriteTimer@timerVal	;volatile
  4752  001A30  C047  F002         	movff	_timer3ReloadVal+1,TMR3_WriteTimer@timerVal+1	;volatile
  4753  001A34  EC7A  F00C         	call	_TMR3_WriteTimer	;wreg free
  4754  001A38                     
  4755                           ;mcc_generated_files/tmr3.c: 156:     TMR3_CallBack();
  4756  001A38  EC4A  F00C         	call	_TMR3_CallBack	;wreg free
  4757  001A3C  0012               	return		;funcret
  4758  001A3E                     __end_of_TMR3_ISR:
  4759                           	opt callstack 0
  4760                           
  4761 ;; *************** function _TMR3_WriteTimer *****************
  4762 ;; Defined at:
  4763 ;;		line 120 in file "mcc_generated_files/tmr3.c"
  4764 ;; Parameters:    Size  Location     Type
  4765 ;;  timerVal        2    0[COMRAM] unsigned short 
  4766 ;; Auto vars:     Size  Location     Type
  4767 ;;		None
  4768 ;; Return value:  Size  Location     Type
  4769 ;;                  1    wreg      void 
  4770 ;; Registers used:
  4771 ;;		wreg, status,2
  4772 ;; Tracked objects:
  4773 ;;		On entry : 0/0
  4774 ;;		On exit  : 0/0
  4775 ;;		Unchanged: 0/0
  4776 ;; Data sizes:     COMRAM   BANK0   BANK1   BANK2   BANK3   BANK4   BANK5
  4777 ;;      Params:         2       0       0       0       0       0       0
  4778 ;;      Locals:         0       0       0       0       0       0       0
  4779 ;;      Temps:          0       0       0       0       0       0       0
  4780 ;;      Totals:         2       0       0       0       0       0       0
  4781 ;;Total ram usage:        2 bytes
  4782 ;; Hardware stack levels used:    1
  4783 ;; This function calls:
  4784 ;;		Nothing
  4785 ;; This function is called by:
  4786 ;;		_TMR3_ISR
  4787 ;;		_TMR3_Reload
  4788 ;; This function uses a non-reentrant model
  4789 ;;
  4790                           
  4791                           	psect	text32
  4792  0018F4                     __ptext32:
  4793                           	opt callstack 0
  4794  0018F4                     _TMR3_WriteTimer:
  4795                           	opt callstack 25
  4796  0018F4                     
  4797                           ;mcc_generated_files/tmr3.c: 120: void TMR3_WriteTimer(uint16_t timerVal);mcc_generated_
      +                          files/tmr3.c: 121: {;mcc_generated_files/tmr3.c: 122:     if (T3CONbits.nT3SYNC == 1)
  4798  0018F4  A4B1               	btfss	177,2,c	;volatile
  4799  0018F6  EF7F  F00C         	goto	i2u180_41
  4800  0018FA  EF81  F00C         	goto	i2u180_40
  4801  0018FE                     i2u180_41:
  4802  0018FE  EF89  F00C         	goto	i2l2749
  4803  001902                     i2u180_40:
  4804  001902                     
  4805                           ;mcc_generated_files/tmr3.c: 123:     {;mcc_generated_files/tmr3.c: 125:         T3CONbi
      +                          ts.TMR3ON = 0;
  4806  001902  90B1               	bcf	177,0,c	;volatile
  4807  001904                     
  4808                           ;mcc_generated_files/tmr3.c: 128:         TMR3H = (timerVal >> 8);
  4809  001904  5002               	movf	(TMR3_WriteTimer@timerVal+1)^0,w,c
  4810  001906  6EB3               	movwf	179,c	;volatile
  4811  001908                     
  4812                           ;mcc_generated_files/tmr3.c: 129:         TMR3L = (uint8_t) timerVal;
  4813  001908  C001  FFB2         	movff	TMR3_WriteTimer@timerVal,4018	;volatile
  4814  00190C                     
  4815                           ;mcc_generated_files/tmr3.c: 132:         T3CONbits.TMR3ON =1;
  4816  00190C  80B1               	bsf	177,0,c	;volatile
  4817                           
  4818                           ;mcc_generated_files/tmr3.c: 133:     }
  4819  00190E  EF8D  F00C         	goto	i2l502
  4820  001912                     i2l2749:
  4821                           
  4822                           ;mcc_generated_files/tmr3.c: 135:     {;mcc_generated_files/tmr3.c: 137:         TMR3H =
      +                           (timerVal >> 8);
  4823  001912  5002               	movf	(TMR3_WriteTimer@timerVal+1)^0,w,c
  4824  001914  6EB3               	movwf	179,c	;volatile
  4825  001916                     
  4826                           ;mcc_generated_files/tmr3.c: 138:         TMR3L = (uint8_t) timerVal;
  4827  001916  C001  FFB2         	movff	TMR3_WriteTimer@timerVal,4018	;volatile
  4828  00191A                     i2l502:
  4829  00191A  0012               	return		;funcret
  4830  00191C                     __end_of_TMR3_WriteTimer:
  4831                           	opt callstack 0
  4832                           
  4833 ;; *************** function _TMR3_CallBack *****************
  4834 ;; Defined at:
  4835 ;;		line 159 in file "mcc_generated_files/tmr3.c"
  4836 ;; Parameters:    Size  Location     Type
  4837 ;;		None
  4838 ;; Auto vars:     Size  Location     Type
  4839 ;;		None
  4840 ;; Return value:  Size  Location     Type
  4841 ;;                  1    wreg      void 
  4842 ;; Registers used:
  4843 ;;		wreg, status,2, status,0, pclath, tosl, cstack
  4844 ;; Tracked objects:
  4845 ;;		On entry : 0/0
  4846 ;;		On exit  : 0/0
  4847 ;;		Unchanged: 0/0
  4848 ;; Data sizes:     COMRAM   BANK0   BANK1   BANK2   BANK3   BANK4   BANK5
  4849 ;;      Params:         0       0       0       0       0       0       0
  4850 ;;      Locals:         0       0       0       0       0       0       0
  4851 ;;      Temps:          0       0       0       0       0       0       0
  4852 ;;      Totals:         0       0       0       0       0       0       0
  4853 ;;Total ram usage:        0 bytes
  4854 ;; Hardware stack levels used:    1
  4855 ;; Hardware stack levels required when called:    2
  4856 ;; This function calls:
  4857 ;;		Absolute function
  4858 ;;		_TMR3_DefaultInterruptHandler
  4859 ;; This function is called by:
  4860 ;;		_TMR3_ISR
  4861 ;; This function uses a non-reentrant model
  4862 ;;
  4863                           
  4864                           	psect	text33
  4865  001894                     __ptext33:
  4866                           	opt callstack 0
  4867  001894                     _TMR3_CallBack:
  4868                           	opt callstack 23
  4869  001894                     
  4870                           ;mcc_generated_files/tmr3.c: 163:     if(TMR3_InterruptHandler)
  4871  001894  0100               	movlb	0	; () banked
  4872  001896  51A3               	movf	_TMR3_InterruptHandler& (0+255),w,b
  4873  001898  11A4               	iorwf	(_TMR3_InterruptHandler+1)& (0+255),w,b
  4874  00189A  B4D8               	btfsc	status,2,c
  4875  00189C  EF52  F00C         	goto	i2u181_41
  4876  0018A0  EF54  F00C         	goto	i2u181_40
  4877  0018A4                     i2u181_41:
  4878  0018A4  EF61  F00C         	goto	i2l512
  4879  0018A8                     i2u181_40:
  4880  0018A8                     
  4881                           ; BSR set to: 0
  4882                           ;mcc_generated_files/tmr3.c: 164:     {;mcc_generated_files/tmr3.c: 165:         TMR3_In
      +                          terruptHandler();
  4883  0018A8  D802               	call	i2u182_48
  4884  0018AA  EF61  F00C         	goto	i2u182_49
  4885  0018AE                     i2u182_48:
  4886  0018AE  0005               	push	
  4887  0018B0  6EFA               	movwf	pclath,c
  4888  0018B2  51A3               	movf	_TMR3_InterruptHandler& (0+255),w,b
  4889  0018B4  6EFD               	movwf	tosl,c
  4890  0018B6  51A4               	movf	(_TMR3_InterruptHandler+1)& (0+255),w,b
  4891  0018B8  6EFE               	movwf	tosh,c
  4892  0018BA  50F8               	movf	tblptru,w,c
  4893  0018BC  6EFF               	movwf	tosu,c
  4894  0018BE  50FA               	movf	pclath,w,c
  4895  0018C0  0012               	return		;indir
  4896  0018C2                     i2u182_49:
  4897  0018C2                     i2l512:
  4898  0018C2  0012               	return		;funcret
  4899  0018C4                     __end_of_TMR3_CallBack:
  4900                           	opt callstack 0
  4901                           
  4902 ;; *************** function _TMR3_DefaultInterruptHandler *****************
  4903 ;; Defined at:
  4904 ;;		line 173 in file "mcc_generated_files/tmr3.c"
  4905 ;; Parameters:    Size  Location     Type
  4906 ;;		None
  4907 ;; Auto vars:     Size  Location     Type
  4908 ;;  currentC1       2    0        int 
  4909 ;;  currentA1       2    0        int 
  4910 ;; Return value:  Size  Location     Type
  4911 ;;                  1    wreg      void 
  4912 ;; Registers used:
  4913 ;;		wreg, status,2, status,0, cstack
  4914 ;; Tracked objects:
  4915 ;;		On entry : 0/0
  4916 ;;		On exit  : 0/0
  4917 ;;		Unchanged: 0/0
  4918 ;; Data sizes:     COMRAM   BANK0   BANK1   BANK2   BANK3   BANK4   BANK5
  4919 ;;      Params:         0       0       0       0       0       0       0
  4920 ;;      Locals:         4       0       0       0       0       0       0
  4921 ;;      Temps:          2       0       0       0       0       0       0
  4922 ;;      Totals:         6       0       0       0       0       0       0
  4923 ;;Total ram usage:        6 bytes
  4924 ;; Hardware stack levels used:    1
  4925 ;; Hardware stack levels required when called:    1
  4926 ;; This function calls:
  4927 ;;		_setSwitchState
  4928 ;; This function is called by:
  4929 ;;		_TMR3_Initialize
  4930 ;;		_TMR3_CallBack
  4931 ;; This function uses a non-reentrant model
  4932 ;;
  4933                           
  4934                           	psect	text34
  4935  0016B4                     __ptext34:
  4936                           	opt callstack 0
  4937  0016B4                     _TMR3_DefaultInterruptHandler:
  4938                           	opt callstack 23
  4939  0016B4                     
  4940                           ;mcc_generated_files/tmr3.c: 176:     static int SwitchCount = 0;;mcc_generated_files/tm
      +                          r3.c: 177:     static int encoderA1Count = 0;;mcc_generated_files/tmr3.c: 178:     stati
      +                          c int encoderC1Count = 0;;mcc_generated_files/tmr3.c: 180:     static int switchPrevious
      +                          StableState = 0;;mcc_generated_files/tmr3.c: 181:     static int encoderA1PreviousStable
      +                          State = 0;;mcc_generated_files/tmr3.c: 182:     static int encoderC1PreviousStableState 
      +                          = 0;;mcc_generated_files/tmr3.c: 184:     int currentA1, currentC1;;mcc_generated_files/
      +                          tmr3.c: 186:     if(switchPreviousStableState != ((PORTD & (1 << 6)) >> 6) )
  4941  0016B4  4483               	rlncf	131,w,c	;volatile
  4942  0016B6  46E8               	rlncf	wreg,f,c
  4943  0016B8  0B03               	andlw	3
  4944  0016BA  0B01               	andlw	1
  4945  0016BC  6E03               	movwf	??_TMR3_DefaultInterruptHandler^0,c
  4946  0016BE  6A04               	clrf	(??_TMR3_DefaultInterruptHandler+1)^0,c
  4947  0016C0  503E               	movf	TMR3_DefaultInterruptHandler@switchPreviousStableState^0,w,c
  4948  0016C2  1803               	xorwf	??_TMR3_DefaultInterruptHandler^0,w,c
  4949  0016C4  E109               	bnz	i2u173_40
  4950  0016C6  503F               	movf	(TMR3_DefaultInterruptHandler@switchPreviousStableState+1)^0,w,c
  4951  0016C8  1804               	xorwf	(??_TMR3_DefaultInterruptHandler+1)^0,w,c
  4952  0016CA  B4D8               	btfsc	status,2,c
  4953  0016CC  EF6A  F00B         	goto	i2u173_41
  4954  0016D0  EF6C  F00B         	goto	i2u173_40
  4955  0016D4                     i2u173_41:
  4956  0016D4  EF95  F00B         	goto	i2l2667
  4957  0016D8                     i2u173_40:
  4958  0016D8                     
  4959                           ;mcc_generated_files/tmr3.c: 187:     {;mcc_generated_files/tmr3.c: 188:         SwitchC
      +                          ount++;
  4960  0016D8  4A40               	infsnz	TMR3_DefaultInterruptHandler@SwitchCount^0,f,c
  4961  0016DA  2A41               	incf	(TMR3_DefaultInterruptHandler@SwitchCount+1)^0,f,c
  4962  0016DC                     
  4963                           ;mcc_generated_files/tmr3.c: 189:         if(SwitchCount == 50)
  4964  0016DC  0E32               	movlw	50
  4965  0016DE  1840               	xorwf	TMR3_DefaultInterruptHandler@SwitchCount^0,w,c
  4966  0016E0  1041               	iorwf	(TMR3_DefaultInterruptHandler@SwitchCount+1)^0,w,c
  4967  0016E2  A4D8               	btfss	status,2,c
  4968  0016E4  EF76  F00B         	goto	i2u174_41
  4969  0016E8  EF78  F00B         	goto	i2u174_40
  4970  0016EC                     i2u174_41:
  4971  0016EC  EF95  F00B         	goto	i2l2667
  4972  0016F0                     i2u174_40:
  4973  0016F0                     
  4974                           ;mcc_generated_files/tmr3.c: 190:         {;mcc_generated_files/tmr3.c: 192:            
      +                           if(switchPreviousStableState == 0)
  4975  0016F0  503E               	movf	TMR3_DefaultInterruptHandler@switchPreviousStableState^0,w,c
  4976  0016F2  103F               	iorwf	(TMR3_DefaultInterruptHandler@switchPreviousStableState+1)^0,w,c
  4977  0016F4  A4D8               	btfss	status,2,c
  4978  0016F6  EF7F  F00B         	goto	i2u175_41
  4979  0016FA  EF81  F00B         	goto	i2u175_40
  4980  0016FE                     i2u175_41:
  4981  0016FE  EF87  F00B         	goto	i2l2665
  4982  001702                     i2u175_40:
  4983  001702                     
  4984                           ;mcc_generated_files/tmr3.c: 193:             {;mcc_generated_files/tmr3.c: 194:        
      +                                   setSwitchState(1);
  4985  001702  0E00               	movlw	0
  4986  001704  6E02               	movwf	(setSwitchState@s+1)^0,c
  4987  001706  0E01               	movlw	1
  4988  001708  6E01               	movwf	setSwitchState@s^0,c
  4989  00170A  EC38  F00D         	call	_setSwitchState	;wreg free
  4990  00170E                     i2l2665:
  4991                           
  4992                           ;mcc_generated_files/tmr3.c: 196:             switchPreviousStableState = ((PORTD & (1 <
      +                          < 6)) >> 6);
  4993  00170E  CF83 F003          	movff	3971,??_TMR3_DefaultInterruptHandler	;volatile
  4994  001712  0E06               	movlw	6
  4995  001714  6E04               	movwf	(??_TMR3_DefaultInterruptHandler+1)^0,c
  4996  001716                     i2u176_45:
  4997  001716  90D8               	bcf	status,0,c
  4998  001718  3203               	rrcf	??_TMR3_DefaultInterruptHandler^0,f,c
  4999  00171A  2E04               	decfsz	(??_TMR3_DefaultInterruptHandler+1)^0,f,c
  5000  00171C  EF8B  F00B         	goto	i2u176_45
  5001  001720  0E01               	movlw	1
  5002  001722  1603               	andwf	??_TMR3_DefaultInterruptHandler^0,f,c
  5003  001724  5003               	movf	??_TMR3_DefaultInterruptHandler^0,w,c
  5004  001726  6E3E               	movwf	TMR3_DefaultInterruptHandler@switchPreviousStableState^0,c
  5005  001728  6A3F               	clrf	(TMR3_DefaultInterruptHandler@switchPreviousStableState+1)^0,c
  5006  00172A                     i2l2667:
  5007  00172A  5083               	movf	131,w,c	;volatile
  5008  00172C  5083               	movf	131,w,c	;volatile
  5009  00172E  0012               	return		;funcret
  5010  001730                     __end_of_TMR3_DefaultInterruptHandler:
  5011                           	opt callstack 0
  5012                           
  5013 ;; *************** function _setSwitchState *****************
  5014 ;; Defined at:
  5015 ;;		line 6 in file "rotaryEncoderDriver.c"
  5016 ;; Parameters:    Size  Location     Type
  5017 ;;  s               2    0[COMRAM] int 
  5018 ;; Auto vars:     Size  Location     Type
  5019 ;;		None
  5020 ;; Return value:  Size  Location     Type
  5021 ;;                  1    wreg      void 
  5022 ;; Registers used:
  5023 ;;		None
  5024 ;; Tracked objects:
  5025 ;;		On entry : 0/0
  5026 ;;		On exit  : 0/0
  5027 ;;		Unchanged: 0/0
  5028 ;; Data sizes:     COMRAM   BANK0   BANK1   BANK2   BANK3   BANK4   BANK5
  5029 ;;      Params:         2       0       0       0       0       0       0
  5030 ;;      Locals:         0       0       0       0       0       0       0
  5031 ;;      Temps:          0       0       0       0       0       0       0
  5032 ;;      Totals:         2       0       0       0       0       0       0
  5033 ;;Total ram usage:        2 bytes
  5034 ;; Hardware stack levels used:    1
  5035 ;; This function calls:
  5036 ;;		Nothing
  5037 ;; This function is called by:
  5038 ;;		_TMR3_DefaultInterruptHandler
  5039 ;; This function uses a non-reentrant model
  5040 ;;
  5041                           
  5042                           	psect	text35
  5043  001A70                     __ptext35:
  5044                           	opt callstack 0
  5045  001A70                     _setSwitchState:
  5046                           	opt callstack 23
  5047  001A70                     
  5048                           ;rotaryEncoderDriver.c: 6: void setSwitchState(int s);rotaryEncoderDriver.c: 7: {;rotary
      +                          EncoderDriver.c: 8:     SwitchState = s;
  5049  001A70  C001  F044         	movff	setSwitchState@s,_SwitchState	;volatile
  5050  001A74  C002  F045         	movff	setSwitchState@s+1,_SwitchState+1	;volatile
  5051  001A78  0012               	return		;funcret
  5052  001A7A                     __end_of_setSwitchState:
  5053                           	opt callstack 0
  5054                           
  5055 ;; *************** function _TMR2_ISR *****************
  5056 ;; Defined at:
  5057 ;;		line 120 in file "mcc_generated_files/tmr2.c"
  5058 ;; Parameters:    Size  Location     Type
  5059 ;;		None
  5060 ;; Auto vars:     Size  Location     Type
  5061 ;;		None
  5062 ;; Return value:  Size  Location     Type
  5063 ;;                  1    wreg      void 
  5064 ;; Registers used:
  5065 ;;		wreg, status,2, status,0, pclath, tosl, cstack
  5066 ;; Tracked objects:
  5067 ;;		On entry : 0/0
  5068 ;;		On exit  : 0/0
  5069 ;;		Unchanged: 0/0
  5070 ;; Data sizes:     COMRAM   BANK0   BANK1   BANK2   BANK3   BANK4   BANK5
  5071 ;;      Params:         0       0       0       0       0       0       0
  5072 ;;      Locals:         0       0       0       0       0       0       0
  5073 ;;      Temps:          0       0       0       0       0       0       0
  5074 ;;      Totals:         0       0       0       0       0       0       0
  5075 ;;Total ram usage:        0 bytes
  5076 ;; Hardware stack levels used:    1
  5077 ;; Hardware stack levels required when called:    4
  5078 ;; This function calls:
  5079 ;;		_TMR2_CallBack
  5080 ;; This function is called by:
  5081 ;;		_INTERRUPT_InterruptManager
  5082 ;; This function uses a non-reentrant model
  5083 ;;
  5084                           
  5085                           	psect	text36
  5086  001A7A                     __ptext36:
  5087                           	opt callstack 0
  5088  001A7A                     _TMR2_ISR:
  5089                           	opt callstack 22
  5090  001A7A                     
  5091                           ;mcc_generated_files/tmr2.c: 124:     PIR1bits.TMR2IF = 0;
  5092  001A7A  929E               	bcf	158,1,c	;volatile
  5093  001A7C                     
  5094                           ;mcc_generated_files/tmr2.c: 128:     TMR2_CallBack();
  5095  001A7C  EC62  F00C         	call	_TMR2_CallBack	;wreg free
  5096  001A80  0012               	return		;funcret
  5097  001A82                     __end_of_TMR2_ISR:
  5098                           	opt callstack 0
  5099                           
  5100 ;; *************** function _TMR2_CallBack *****************
  5101 ;; Defined at:
  5102 ;;		line 131 in file "mcc_generated_files/tmr2.c"
  5103 ;; Parameters:    Size  Location     Type
  5104 ;;		None
  5105 ;; Auto vars:     Size  Location     Type
  5106 ;;		None
  5107 ;; Return value:  Size  Location     Type
  5108 ;;                  1    wreg      void 
  5109 ;; Registers used:
  5110 ;;		wreg, status,2, status,0, pclath, tosl, cstack
  5111 ;; Tracked objects:
  5112 ;;		On entry : 0/0
  5113 ;;		On exit  : 0/0
  5114 ;;		Unchanged: 0/0
  5115 ;; Data sizes:     COMRAM   BANK0   BANK1   BANK2   BANK3   BANK4   BANK5
  5116 ;;      Params:         0       0       0       0       0       0       0
  5117 ;;      Locals:         0       0       0       0       0       0       0
  5118 ;;      Temps:          0       0       0       0       0       0       0
  5119 ;;      Totals:         0       0       0       0       0       0       0
  5120 ;;Total ram usage:        0 bytes
  5121 ;; Hardware stack levels used:    1
  5122 ;; Hardware stack levels required when called:    3
  5123 ;; This function calls:
  5124 ;;		Absolute function
  5125 ;;		_TMR2_DefaultInterruptHandler
  5126 ;; This function is called by:
  5127 ;;		_TMR2_ISR
  5128 ;; This function uses a non-reentrant model
  5129 ;;
  5130                           
  5131                           	psect	text37
  5132  0018C4                     __ptext37:
  5133                           	opt callstack 0
  5134  0018C4                     _TMR2_CallBack:
  5135                           	opt callstack 22
  5136  0018C4                     
  5137                           ;mcc_generated_files/tmr2.c: 135:     if(TMR2_InterruptHandler)
  5138  0018C4  0100               	movlb	0	; () banked
  5139  0018C6  51A5               	movf	_TMR2_InterruptHandler& (0+255),w,b
  5140  0018C8  11A6               	iorwf	(_TMR2_InterruptHandler+1)& (0+255),w,b
  5141  0018CA  B4D8               	btfsc	status,2,c
  5142  0018CC  EF6A  F00C         	goto	i2u178_41
  5143  0018D0  EF6C  F00C         	goto	i2u178_40
  5144  0018D4                     i2u178_41:
  5145  0018D4  EF79  F00C         	goto	i2l314
  5146  0018D8                     i2u178_40:
  5147  0018D8                     
  5148                           ; BSR set to: 0
  5149                           ;mcc_generated_files/tmr2.c: 136:     {;mcc_generated_files/tmr2.c: 137:         TMR2_In
      +                          terruptHandler();
  5150  0018D8  D802               	call	i2u179_48
  5151  0018DA  EF79  F00C         	goto	i2u179_49
  5152  0018DE                     i2u179_48:
  5153  0018DE  0005               	push	
  5154  0018E0  6EFA               	movwf	pclath,c
  5155  0018E2  51A5               	movf	_TMR2_InterruptHandler& (0+255),w,b
  5156  0018E4  6EFD               	movwf	tosl,c
  5157  0018E6  51A6               	movf	(_TMR2_InterruptHandler+1)& (0+255),w,b
  5158  0018E8  6EFE               	movwf	tosh,c
  5159  0018EA  50F8               	movf	tblptru,w,c
  5160  0018EC  6EFF               	movwf	tosu,c
  5161  0018EE  50FA               	movf	pclath,w,c
  5162  0018F0  0012               	return		;indir
  5163  0018F2                     i2u179_49:
  5164  0018F2                     i2l314:
  5165  0018F2  0012               	return		;funcret
  5166  0018F4                     __end_of_TMR2_CallBack:
  5167                           	opt callstack 0
  5168                           
  5169 ;; *************** function _TMR2_DefaultInterruptHandler *****************
  5170 ;; Defined at:
  5171 ;;		line 145 in file "mcc_generated_files/tmr2.c"
  5172 ;; Parameters:    Size  Location     Type
  5173 ;;		None
  5174 ;; Auto vars:     Size  Location     Type
  5175 ;;		None
  5176 ;; Return value:  Size  Location     Type
  5177 ;;                  1    wreg      void 
  5178 ;; Registers used:
  5179 ;;		wreg, status,2, status,0, cstack
  5180 ;; Tracked objects:
  5181 ;;		On entry : 0/0
  5182 ;;		On exit  : 0/0
  5183 ;;		Unchanged: 0/0
  5184 ;; Data sizes:     COMRAM   BANK0   BANK1   BANK2   BANK3   BANK4   BANK5
  5185 ;;      Params:         0       0       0       0       0       0       0
  5186 ;;      Locals:         0       0       0       0       0       0       0
  5187 ;;      Temps:          0       0       0       0       0       0       0
  5188 ;;      Totals:         0       0       0       0       0       0       0
  5189 ;;Total ram usage:        0 bytes
  5190 ;; Hardware stack levels used:    1
  5191 ;; Hardware stack levels required when called:    2
  5192 ;; This function calls:
  5193 ;;		_printTemperature
  5194 ;; This function is called by:
  5195 ;;		_TMR2_Initialize
  5196 ;;		_TMR2_CallBack
  5197 ;; This function uses a non-reentrant model
  5198 ;;
  5199                           
  5200                           	psect	text38
  5201  001A82                     __ptext38:
  5202                           	opt callstack 0
  5203  001A82                     _TMR2_DefaultInterruptHandler:
  5204                           	opt callstack 22
  5205  001A82                     
  5206                           ;mcc_generated_files/tmr2.c: 148:     printTemperature();
  5207  001A82  ECBE  F008         	call	_printTemperature	;wreg free
  5208  001A86  0012               	return		;funcret
  5209  001A88                     __end_of_TMR2_DefaultInterruptHandler:
  5210                           	opt callstack 0
  5211                           
  5212 ;; *************** function _printTemperature *****************
  5213 ;; Defined at:
  5214 ;;		line 25 in file "segmentDisplayDriver.c"
  5215 ;; Parameters:    Size  Location     Type
  5216 ;;		None
  5217 ;; Auto vars:     Size  Location     Type
  5218 ;;  t               2   12[COMRAM] int 
  5219 ;; Return value:  Size  Location     Type
  5220 ;;                  1    wreg      void 
  5221 ;; Registers used:
  5222 ;;		wreg, status,2, status,0, cstack
  5223 ;; Tracked objects:
  5224 ;;		On entry : 0/0
  5225 ;;		On exit  : 0/0
  5226 ;;		Unchanged: 0/0
  5227 ;; Data sizes:     COMRAM   BANK0   BANK1   BANK2   BANK3   BANK4   BANK5
  5228 ;;      Params:         0       0       0       0       0       0       0
  5229 ;;      Locals:         2       0       0       0       0       0       0
  5230 ;;      Temps:          0       0       0       0       0       0       0
  5231 ;;      Totals:         2       0       0       0       0       0       0
  5232 ;;Total ram usage:        2 bytes
  5233 ;; Hardware stack levels used:    1
  5234 ;; Hardware stack levels required when called:    1
  5235 ;; This function calls:
  5236 ;;		___awdiv
  5237 ;;		___awmod
  5238 ;;		_clearDisplay
  5239 ;;		_printCharacter
  5240 ;;		_setDP
  5241 ;; This function is called by:
  5242 ;;		_TMR2_DefaultInterruptHandler
  5243 ;; This function uses a non-reentrant model
  5244 ;;
  5245                           
  5246                           	psect	text39
  5247  00117C                     __ptext39:
  5248                           	opt callstack 0
  5249  00117C                     _printTemperature:
  5250                           	opt callstack 22
  5251  00117C                     
  5252                           ;segmentDisplayDriver.c: 27:     static short digit = 1;;segmentDisplayDriver.c: 29:    
      +                           if(DisplayOn == 0)
  5253  00117C  504C               	movf	_DisplayOn^0,w,c
  5254  00117E  104D               	iorwf	(_DisplayOn+1)^0,w,c
  5255  001180  A4D8               	btfss	status,2,c
  5256  001182  EFC5  F008         	goto	i2u167_41
  5257  001186  EFC7  F008         	goto	i2u167_40
  5258  00118A                     i2u167_41:
  5259  00118A  EFCB  F008         	goto	i2l2591
  5260  00118E                     i2u167_40:
  5261  00118E                     
  5262                           ;segmentDisplayDriver.c: 30:     {;segmentDisplayDriver.c: 31:         clearDisplay();
  5263  00118E  ECB3  F00C         	call	_clearDisplay	;wreg free
  5264  001192  EF45  F009         	goto	i2l381
  5265  001196                     i2l2591:
  5266                           
  5267                           ;segmentDisplayDriver.c: 35:     if(digit == 1)
  5268  001196  044A               	decf	printTemperature@digit^0,w,c
  5269  001198  104B               	iorwf	(printTemperature@digit+1)^0,w,c
  5270  00119A  A4D8               	btfss	status,2,c
  5271  00119C  EFD2  F008         	goto	i2u168_41
  5272  0011A0  EFD4  F008         	goto	i2u168_40
  5273  0011A4                     i2u168_41:
  5274  0011A4  EFEF  F008         	goto	i2l2605
  5275  0011A8                     i2u168_40:
  5276  0011A8                     
  5277                           ;segmentDisplayDriver.c: 36:     {;segmentDisplayDriver.c: 37:         clearDisplay();
  5278  0011A8  ECB3  F00C         	call	_clearDisplay	;wreg free
  5279  0011AC                     
  5280                           ;segmentDisplayDriver.c: 39:         LATC &= !(1<<0);
  5281  0011AC  0E00               	movlw	0
  5282  0011AE  6E8B               	movwf	139,c	;volatile
  5283  0011B0                     
  5284                           ;segmentDisplayDriver.c: 40:         LATA &= !(1<<6);
  5285  0011B0  0E00               	movlw	0
  5286  0011B2  6E89               	movwf	137,c	;volatile
  5287  0011B4                     
  5288                           ;segmentDisplayDriver.c: 42:         LATC |= (1<<1);
  5289  0011B4  828B               	bsf	139,1,c	;volatile
  5290  0011B6                     
  5291                           ;segmentDisplayDriver.c: 43:         printCharacter(temperature/100);
  5292  0011B6  C048  F001         	movff	_temperature,___awdiv@dividend
  5293  0011BA  C049  F002         	movff	_temperature+1,___awdiv@dividend+1
  5294  0011BE  0E00               	movlw	0
  5295  0011C0  6E04               	movwf	(___awdiv@divisor+1)^0,c
  5296  0011C2  0E64               	movlw	100
  5297  0011C4  6E03               	movwf	___awdiv@divisor^0,c
  5298  0011C6  EC48  F00A         	call	___awdiv	;wreg free
  5299  0011CA  C001  F009         	movff	?___awdiv,printCharacter@n
  5300  0011CE  C002  F00A         	movff	?___awdiv+1,printCharacter@n+1
  5301  0011D2  ECCA  F009         	call	_printCharacter	;wreg free
  5302  0011D6                     i2l2603:
  5303                           
  5304                           ;segmentDisplayDriver.c: 44:         digit++;
  5305  0011D6  4A4A               	infsnz	printTemperature@digit^0,f,c
  5306  0011D8  2A4B               	incf	(printTemperature@digit+1)^0,f,c
  5307                           
  5308                           ;segmentDisplayDriver.c: 45:     }
  5309  0011DA  EF45  F009         	goto	i2l381
  5310  0011DE                     i2l2605:
  5311  0011DE  0E02               	movlw	2
  5312  0011E0  184A               	xorwf	printTemperature@digit^0,w,c
  5313  0011E2  104B               	iorwf	(printTemperature@digit+1)^0,w,c
  5314  0011E4  A4D8               	btfss	status,2,c
  5315  0011E6  EFF7  F008         	goto	i2u169_41
  5316  0011EA  EFF9  F008         	goto	i2u169_40
  5317  0011EE                     i2u169_41:
  5318  0011EE  EF22  F009         	goto	i2l2623
  5319  0011F2                     i2u169_40:
  5320  0011F2                     
  5321                           ;segmentDisplayDriver.c: 47:     {;segmentDisplayDriver.c: 48:         clearDisplay();
  5322  0011F2  ECB3  F00C         	call	_clearDisplay	;wreg free
  5323  0011F6                     
  5324                           ;segmentDisplayDriver.c: 50:         LATC &= !(1<<1);
  5325  0011F6  0E00               	movlw	0
  5326  0011F8  6E8B               	movwf	139,c	;volatile
  5327  0011FA                     
  5328                           ;segmentDisplayDriver.c: 51:         LATA &= !(1<<6);
  5329  0011FA  0E00               	movlw	0
  5330  0011FC  6E89               	movwf	137,c	;volatile
  5331  0011FE                     
  5332                           ;segmentDisplayDriver.c: 54:         LATC |= (1<<0);
  5333  0011FE  808B               	bsf	139,0,c	;volatile
  5334  001200                     
  5335                           ;segmentDisplayDriver.c: 56:         int t = temperature / 10;
  5336  001200  C048  F001         	movff	_temperature,___awdiv@dividend
  5337  001204  C049  F002         	movff	_temperature+1,___awdiv@dividend+1
  5338  001208  0E00               	movlw	0
  5339  00120A  6E04               	movwf	(___awdiv@divisor+1)^0,c
  5340  00120C  0E0A               	movlw	10
  5341  00120E  6E03               	movwf	___awdiv@divisor^0,c
  5342  001210  EC48  F00A         	call	___awdiv	;wreg free
  5343  001214  C001  F00D         	movff	?___awdiv,printTemperature@t
  5344  001218  C002  F00E         	movff	?___awdiv+1,printTemperature@t+1
  5345  00121C                     
  5346                           ;segmentDisplayDriver.c: 57:         printCharacter(t%10);
  5347  00121C  C00D  F001         	movff	printTemperature@t,___awmod@dividend
  5348  001220  C00E  F002         	movff	printTemperature@t+1,___awmod@dividend+1
  5349  001224  0E00               	movlw	0
  5350  001226  6E04               	movwf	(___awmod@divisor+1)^0,c
  5351  001228  0E0A               	movlw	10
  5352  00122A  6E03               	movwf	___awmod@divisor^0,c
  5353  00122C  EC02  F00B         	call	___awmod	;wreg free
  5354  001230  C001  F009         	movff	?___awmod,printCharacter@n
  5355  001234  C002  F00A         	movff	?___awmod+1,printCharacter@n+1
  5356  001238  ECCA  F009         	call	_printCharacter	;wreg free
  5357  00123C                     
  5358                           ;segmentDisplayDriver.c: 58:         setDP();
  5359  00123C  EC4C  F00D         	call	_setDP	;wreg free
  5360  001240  EFEB  F008         	goto	i2l2603
  5361  001244                     i2l2623:
  5362  001244  0E03               	movlw	3
  5363  001246  184A               	xorwf	printTemperature@digit^0,w,c
  5364  001248  104B               	iorwf	(printTemperature@digit+1)^0,w,c
  5365  00124A  A4D8               	btfss	status,2,c
  5366  00124C  EF2A  F009         	goto	i2u170_41
  5367  001250  EF2C  F009         	goto	i2u170_40
  5368  001254                     i2u170_41:
  5369  001254  EF45  F009         	goto	i2l381
  5370  001258                     i2u170_40:
  5371  001258                     
  5372                           ;segmentDisplayDriver.c: 63:     {;segmentDisplayDriver.c: 64:         clearDisplay();
  5373  001258  ECB3  F00C         	call	_clearDisplay	;wreg free
  5374  00125C                     
  5375                           ;segmentDisplayDriver.c: 66:         LATC &= !(1<<1);
  5376  00125C  0E00               	movlw	0
  5377  00125E  6E8B               	movwf	139,c	;volatile
  5378  001260                     
  5379                           ;segmentDisplayDriver.c: 67:         LATC &= !(1<<0);
  5380  001260  0E00               	movlw	0
  5381  001262  6E8B               	movwf	139,c	;volatile
  5382  001264                     
  5383                           ;segmentDisplayDriver.c: 69:         LATA |= (1<<6);
  5384  001264  8C89               	bsf	137,6,c	;volatile
  5385  001266                     
  5386                           ;segmentDisplayDriver.c: 71:         printCharacter(temperature%10);
  5387  001266  C048  F001         	movff	_temperature,___awmod@dividend
  5388  00126A  C049  F002         	movff	_temperature+1,___awmod@dividend+1
  5389  00126E  0E00               	movlw	0
  5390  001270  6E04               	movwf	(___awmod@divisor+1)^0,c
  5391  001272  0E0A               	movlw	10
  5392  001274  6E03               	movwf	___awmod@divisor^0,c
  5393  001276  EC02  F00B         	call	___awmod	;wreg free
  5394  00127A  C001  F009         	movff	?___awmod,printCharacter@n
  5395  00127E  C002  F00A         	movff	?___awmod+1,printCharacter@n+1
  5396  001282  ECCA  F009         	call	_printCharacter	;wreg free
  5397  001286  EFEB  F008         	goto	i2l2603
  5398  00128A                     i2l381:
  5399  00128A  0012               	return		;funcret
  5400  00128C                     __end_of_printTemperature:
  5401                           	opt callstack 0
  5402                           
  5403 ;; *************** function _setDP *****************
  5404 ;; Defined at:
  5405 ;;		line 154 in file "segmentDisplayDriver.c"
  5406 ;; Parameters:    Size  Location     Type
  5407 ;;		None
  5408 ;; Auto vars:     Size  Location     Type
  5409 ;;		None
  5410 ;; Return value:  Size  Location     Type
  5411 ;;                  1    wreg      void 
  5412 ;; Registers used:
  5413 ;;		status,2, status,0
  5414 ;; Tracked objects:
  5415 ;;		On entry : 0/0
  5416 ;;		On exit  : 0/0
  5417 ;;		Unchanged: 0/0
  5418 ;; Data sizes:     COMRAM   BANK0   BANK1   BANK2   BANK3   BANK4   BANK5
  5419 ;;      Params:         0       0       0       0       0       0       0
  5420 ;;      Locals:         0       0       0       0       0       0       0
  5421 ;;      Temps:          0       0       0       0       0       0       0
  5422 ;;      Totals:         0       0       0       0       0       0       0
  5423 ;;Total ram usage:        0 bytes
  5424 ;; Hardware stack levels used:    1
  5425 ;; This function calls:
  5426 ;;		Nothing
  5427 ;; This function is called by:
  5428 ;;		_printTemperature
  5429 ;; This function uses a non-reentrant model
  5430 ;;
  5431                           
  5432                           	psect	text40
  5433  001A98                     __ptext40:
  5434                           	opt callstack 0
  5435  001A98                     _setDP:
  5436                           	opt callstack 22
  5437  001A98                     
  5438                           ;segmentDisplayDriver.c: 156:     LATB |= (1<<2);
  5439  001A98  848A               	bsf	138,2,c	;volatile
  5440  001A9A  0012               	return		;funcret
  5441  001A9C                     __end_of_setDP:
  5442                           	opt callstack 0
  5443                           
  5444 ;; *************** function _printCharacter *****************
  5445 ;; Defined at:
  5446 ;;		line 76 in file "segmentDisplayDriver.c"
  5447 ;; Parameters:    Size  Location     Type
  5448 ;;  n               2    8[COMRAM] int 
  5449 ;; Auto vars:     Size  Location     Type
  5450 ;;		None
  5451 ;; Return value:  Size  Location     Type
  5452 ;;                  1    wreg      void 
  5453 ;; Registers used:
  5454 ;;		wreg, status,2, status,0
  5455 ;; Tracked objects:
  5456 ;;		On entry : 0/0
  5457 ;;		On exit  : 0/0
  5458 ;;		Unchanged: 0/0
  5459 ;; Data sizes:     COMRAM   BANK0   BANK1   BANK2   BANK3   BANK4   BANK5
  5460 ;;      Params:         2       0       0       0       0       0       0
  5461 ;;      Locals:         0       0       0       0       0       0       0
  5462 ;;      Temps:          2       0       0       0       0       0       0
  5463 ;;      Totals:         4       0       0       0       0       0       0
  5464 ;;Total ram usage:        4 bytes
  5465 ;; Hardware stack levels used:    1
  5466 ;; This function calls:
  5467 ;;		Nothing
  5468 ;; This function is called by:
  5469 ;;		_printTemperature
  5470 ;; This function uses a non-reentrant model
  5471 ;;
  5472                           
  5473                           	psect	text41
  5474  001394                     __ptext41:
  5475                           	opt callstack 0
  5476  001394                     _printCharacter:
  5477                           	opt callstack 22
  5478  001394                     
  5479                           ;segmentDisplayDriver.c: 76: static void printCharacter(int n);segmentDisplayDriver.c: 7
      +                          7: {;segmentDisplayDriver.c: 78:     switch(n)
  5480  001394  EF11  F00A         	goto	i2l2497
  5481  001398                     i2l2475:
  5482                           
  5483                           ;segmentDisplayDriver.c: 81:             LATB |= (1<<7);
  5484  001398  8E8A               	bsf	138,7,c	;volatile
  5485                           
  5486                           ;segmentDisplayDriver.c: 82:             LATB |= (1<<5);
  5487  00139A  8A8A               	bsf	138,5,c	;volatile
  5488                           
  5489                           ;segmentDisplayDriver.c: 83:             LATB |= (1<<3);
  5490  00139C  868A               	bsf	138,3,c	;volatile
  5491                           
  5492                           ;segmentDisplayDriver.c: 84:             LATB |= (1<<2);
  5493  00139E  848A               	bsf	138,2,c	;volatile
  5494                           
  5495                           ;segmentDisplayDriver.c: 85:             LATB |= (1<<0);
  5496  0013A0  808A               	bsf	138,0,c	;volatile
  5497                           
  5498                           ;segmentDisplayDriver.c: 86:             LATB |= (1<<6);
  5499  0013A2  8C8A               	bsf	138,6,c	;volatile
  5500                           
  5501                           ;segmentDisplayDriver.c: 87:             break;
  5502  0013A4  EF47  F00A         	goto	i2l402
  5503  0013A8                     i2l2477:
  5504                           
  5505                           ;segmentDisplayDriver.c: 89:             LATB |= (1<<5);
  5506  0013A8  8A8A               	bsf	138,5,c	;volatile
  5507                           
  5508                           ;segmentDisplayDriver.c: 90:             LATB |= (1<<3);
  5509  0013AA  868A               	bsf	138,3,c	;volatile
  5510                           
  5511                           ;segmentDisplayDriver.c: 91:             break;
  5512  0013AC  EF47  F00A         	goto	i2l402
  5513  0013B0                     i2l2479:
  5514                           
  5515                           ;segmentDisplayDriver.c: 93:             LATB |= (1<<7);
  5516  0013B0  8E8A               	bsf	138,7,c	;volatile
  5517                           
  5518                           ;segmentDisplayDriver.c: 94:             LATB |= (1<<5);
  5519  0013B2  8A8A               	bsf	138,5,c	;volatile
  5520                           
  5521                           ;segmentDisplayDriver.c: 95:             LATB |= (1<<4);
  5522  0013B4  888A               	bsf	138,4,c	;volatile
  5523                           
  5524                           ;segmentDisplayDriver.c: 96:             LATB |= (1<<0);
  5525  0013B6  808A               	bsf	138,0,c	;volatile
  5526                           
  5527                           ;segmentDisplayDriver.c: 97:             LATB |= (1<<2);
  5528  0013B8  848A               	bsf	138,2,c	;volatile
  5529                           
  5530                           ;segmentDisplayDriver.c: 98:             break;
  5531  0013BA  EF47  F00A         	goto	i2l402
  5532  0013BE                     i2l2481:
  5533                           
  5534                           ;segmentDisplayDriver.c: 100:             LATB |= (1<<7);
  5535  0013BE  8E8A               	bsf	138,7,c	;volatile
  5536                           
  5537                           ;segmentDisplayDriver.c: 101:             LATB |= (1<<5);
  5538  0013C0  8A8A               	bsf	138,5,c	;volatile
  5539                           
  5540                           ;segmentDisplayDriver.c: 102:             LATB |= (1<<4);
  5541  0013C2  888A               	bsf	138,4,c	;volatile
  5542                           
  5543                           ;segmentDisplayDriver.c: 103:             LATB |= (1<<3);
  5544  0013C4  868A               	bsf	138,3,c	;volatile
  5545                           
  5546                           ;segmentDisplayDriver.c: 104:             LATB |= (1<<2);
  5547  0013C6  848A               	bsf	138,2,c	;volatile
  5548                           
  5549                           ;segmentDisplayDriver.c: 105:             break;
  5550  0013C8  EF47  F00A         	goto	i2l402
  5551  0013CC                     i2l2483:
  5552                           
  5553                           ;segmentDisplayDriver.c: 107:             LATB |= (1<<5);
  5554  0013CC  8A8A               	bsf	138,5,c	;volatile
  5555                           
  5556                           ;segmentDisplayDriver.c: 108:             LATB |= (1<<3);
  5557  0013CE  868A               	bsf	138,3,c	;volatile
  5558                           
  5559                           ;segmentDisplayDriver.c: 109:             LATB |= (1<<6);
  5560  0013D0  8C8A               	bsf	138,6,c	;volatile
  5561                           
  5562                           ;segmentDisplayDriver.c: 110:             LATB |= (1<<4);
  5563  0013D2  888A               	bsf	138,4,c	;volatile
  5564                           
  5565                           ;segmentDisplayDriver.c: 111:             break;
  5566  0013D4  EF47  F00A         	goto	i2l402
  5567  0013D8                     i2l2485:
  5568                           
  5569                           ;segmentDisplayDriver.c: 113:             LATB |= (1<<7);
  5570  0013D8  8E8A               	bsf	138,7,c	;volatile
  5571                           
  5572                           ;segmentDisplayDriver.c: 114:             LATB |= (1<<6);
  5573  0013DA  8C8A               	bsf	138,6,c	;volatile
  5574                           
  5575                           ;segmentDisplayDriver.c: 115:             LATB |= (1<<4);
  5576  0013DC  888A               	bsf	138,4,c	;volatile
  5577                           
  5578                           ;segmentDisplayDriver.c: 116:             LATB |= (1<<3);
  5579  0013DE  868A               	bsf	138,3,c	;volatile
  5580                           
  5581                           ;segmentDisplayDriver.c: 117:             LATB |= (1<<2);
  5582  0013E0  848A               	bsf	138,2,c	;volatile
  5583                           
  5584                           ;segmentDisplayDriver.c: 118:             break;
  5585  0013E2  EF47  F00A         	goto	i2l402
  5586  0013E6                     i2l2487:
  5587                           
  5588                           ;segmentDisplayDriver.c: 120:             LATB |= (1<<7);
  5589  0013E6  8E8A               	bsf	138,7,c	;volatile
  5590                           
  5591                           ;segmentDisplayDriver.c: 121:             LATB |= (1<<6);
  5592  0013E8  8C8A               	bsf	138,6,c	;volatile
  5593                           
  5594                           ;segmentDisplayDriver.c: 122:             LATB |= (1<<4);
  5595  0013EA  888A               	bsf	138,4,c	;volatile
  5596                           
  5597                           ;segmentDisplayDriver.c: 123:             LATB |= (1<<3);
  5598  0013EC  868A               	bsf	138,3,c	;volatile
  5599                           
  5600                           ;segmentDisplayDriver.c: 124:             LATB |= (1<<2);
  5601  0013EE  848A               	bsf	138,2,c	;volatile
  5602                           
  5603                           ;segmentDisplayDriver.c: 125:             LATB |= (1<<0);
  5604  0013F0  808A               	bsf	138,0,c	;volatile
  5605                           
  5606                           ;segmentDisplayDriver.c: 126:             break;
  5607  0013F2  EF47  F00A         	goto	i2l402
  5608  0013F6                     i2l2489:
  5609                           
  5610                           ;segmentDisplayDriver.c: 128:             LATB |= (1<<7);
  5611  0013F6  8E8A               	bsf	138,7,c	;volatile
  5612                           
  5613                           ;segmentDisplayDriver.c: 129:             LATB |= (1<<5);
  5614  0013F8  8A8A               	bsf	138,5,c	;volatile
  5615                           
  5616                           ;segmentDisplayDriver.c: 130:             LATB |= (1<<3);
  5617  0013FA  868A               	bsf	138,3,c	;volatile
  5618                           
  5619                           ;segmentDisplayDriver.c: 131:             break;
  5620  0013FC  EF47  F00A         	goto	i2l402
  5621  001400                     i2l2491:
  5622                           
  5623                           ;segmentDisplayDriver.c: 133:             LATB |= (1<<7);
  5624  001400  8E8A               	bsf	138,7,c	;volatile
  5625                           
  5626                           ;segmentDisplayDriver.c: 134:             LATB |= (1<<5);
  5627  001402  8A8A               	bsf	138,5,c	;volatile
  5628                           
  5629                           ;segmentDisplayDriver.c: 135:             LATB |= (1<<3);
  5630  001404  868A               	bsf	138,3,c	;volatile
  5631                           
  5632                           ;segmentDisplayDriver.c: 136:             LATB |= (1<<2);
  5633  001406  848A               	bsf	138,2,c	;volatile
  5634                           
  5635                           ;segmentDisplayDriver.c: 137:             LATB |= (1<<0);
  5636  001408  808A               	bsf	138,0,c	;volatile
  5637                           
  5638                           ;segmentDisplayDriver.c: 138:             LATB |= (1<<6);
  5639  00140A  8C8A               	bsf	138,6,c	;volatile
  5640                           
  5641                           ;segmentDisplayDriver.c: 139:             LATB |= (1<<4);
  5642  00140C  888A               	bsf	138,4,c	;volatile
  5643                           
  5644                           ;segmentDisplayDriver.c: 140:             break;
  5645  00140E  EF47  F00A         	goto	i2l402
  5646  001412                     i2l2493:
  5647                           
  5648                           ;segmentDisplayDriver.c: 142:             LATB |= (1<<7);
  5649  001412  8E8A               	bsf	138,7,c	;volatile
  5650                           
  5651                           ;segmentDisplayDriver.c: 143:             LATB |= (1<<5);
  5652  001414  8A8A               	bsf	138,5,c	;volatile
  5653                           
  5654                           ;segmentDisplayDriver.c: 144:             LATB |= (1<<3);
  5655  001416  868A               	bsf	138,3,c	;volatile
  5656                           
  5657                           ;segmentDisplayDriver.c: 145:             LATB |= (1<<2);
  5658  001418  848A               	bsf	138,2,c	;volatile
  5659                           
  5660                           ;segmentDisplayDriver.c: 146:             LATB |= (1<<6);
  5661  00141A  8C8A               	bsf	138,6,c	;volatile
  5662                           
  5663                           ;segmentDisplayDriver.c: 147:             LATB |= (1<<4);
  5664  00141C  888A               	bsf	138,4,c	;volatile
  5665                           
  5666                           ;segmentDisplayDriver.c: 148:             break;
  5667  00141E  EF47  F00A         	goto	i2l402
  5668  001422                     i2l2497:
  5669  001422  C009  F00B         	movff	printCharacter@n,??_printCharacter
  5670  001426  C00A  F00C         	movff	printCharacter@n+1,??_printCharacter+1
  5671                           
  5672                           ; Switch on 2 bytes has been partitioned into a top level switch of size 1, and 1 sub-sw
      +                          itches
  5673                           ; Switch size 1, requested type "simple"
  5674                           ; Number of cases is 1, Range of values is 0 to 0
  5675                           ; switch strategies available:
  5676                           ; Name         Instructions Cycles
  5677                           ; simple_byte            4     3 (average)
  5678                           ;	Chosen strategy is simple_byte
  5679  00142A  500C               	movf	(??_printCharacter+1)^0,w,c
  5680  00142C  0A00               	xorlw	0	; case 0
  5681  00142E  B4D8               	btfsc	status,2,c
  5682  001430  EF1C  F00A         	goto	i2l3855
  5683  001434  EF47  F00A         	goto	i2l402
  5684  001438                     i2l3855:
  5685                           
  5686                           ; Switch size 1, requested type "simple"
  5687                           ; Number of cases is 10, Range of values is 0 to 9
  5688                           ; switch strategies available:
  5689                           ; Name         Instructions Cycles
  5690                           ; simple_byte           31    16 (average)
  5691                           ;	Chosen strategy is simple_byte
  5692  001438  500B               	movf	??_printCharacter^0,w,c
  5693  00143A  0A00               	xorlw	0	; case 0
  5694  00143C  B4D8               	btfsc	status,2,c
  5695  00143E  EFCC  F009         	goto	i2l2475
  5696  001442  0A01               	xorlw	1	; case 1
  5697  001444  B4D8               	btfsc	status,2,c
  5698  001446  EFD4  F009         	goto	i2l2477
  5699  00144A  0A03               	xorlw	3	; case 2
  5700  00144C  B4D8               	btfsc	status,2,c
  5701  00144E  EFD8  F009         	goto	i2l2479
  5702  001452  0A01               	xorlw	1	; case 3
  5703  001454  B4D8               	btfsc	status,2,c
  5704  001456  EFDF  F009         	goto	i2l2481
  5705  00145A  0A07               	xorlw	7	; case 4
  5706  00145C  B4D8               	btfsc	status,2,c
  5707  00145E  EFE6  F009         	goto	i2l2483
  5708  001462  0A01               	xorlw	1	; case 5
  5709  001464  B4D8               	btfsc	status,2,c
  5710  001466  EFEC  F009         	goto	i2l2485
  5711  00146A  0A03               	xorlw	3	; case 6
  5712  00146C  B4D8               	btfsc	status,2,c
  5713  00146E  EFF3  F009         	goto	i2l2487
  5714  001472  0A01               	xorlw	1	; case 7
  5715  001474  B4D8               	btfsc	status,2,c
  5716  001476  EFFB  F009         	goto	i2l2489
  5717  00147A  0A0F               	xorlw	15	; case 8
  5718  00147C  B4D8               	btfsc	status,2,c
  5719  00147E  EF00  F00A         	goto	i2l2491
  5720  001482  0A01               	xorlw	1	; case 9
  5721  001484  B4D8               	btfsc	status,2,c
  5722  001486  EF09  F00A         	goto	i2l2493
  5723  00148A  EF47  F00A         	goto	i2l402
  5724  00148E                     i2l402:
  5725  00148E  0012               	return		;funcret
  5726  001490                     __end_of_printCharacter:
  5727                           	opt callstack 0
  5728                           
  5729 ;; *************** function _clearDisplay *****************
  5730 ;; Defined at:
  5731 ;;		line 159 in file "segmentDisplayDriver.c"
  5732 ;; Parameters:    Size  Location     Type
  5733 ;;		None
  5734 ;; Auto vars:     Size  Location     Type
  5735 ;;		None
  5736 ;; Return value:  Size  Location     Type
  5737 ;;                  1    wreg      void 
  5738 ;; Registers used:
  5739 ;;		wreg, status,2
  5740 ;; Tracked objects:
  5741 ;;		On entry : 0/0
  5742 ;;		On exit  : 0/0
  5743 ;;		Unchanged: 0/0
  5744 ;; Data sizes:     COMRAM   BANK0   BANK1   BANK2   BANK3   BANK4   BANK5
  5745 ;;      Params:         0       0       0       0       0       0       0
  5746 ;;      Locals:         0       0       0       0       0       0       0
  5747 ;;      Temps:          0       0       0       0       0       0       0
  5748 ;;      Totals:         0       0       0       0       0       0       0
  5749 ;;Total ram usage:        0 bytes
  5750 ;; Hardware stack levels used:    1
  5751 ;; This function calls:
  5752 ;;		Nothing
  5753 ;; This function is called by:
  5754 ;;		_printTemperature
  5755 ;; This function uses a non-reentrant model
  5756 ;;
  5757                           
  5758                           	psect	text42
  5759  001966                     __ptext42:
  5760                           	opt callstack 0
  5761  001966                     _clearDisplay:
  5762                           	opt callstack 22
  5763  001966                     
  5764                           ;segmentDisplayDriver.c: 161:     LATB &= !(1<<7);
  5765  001966  0E00               	movlw	0
  5766  001968  6E8A               	movwf	138,c	;volatile
  5767                           
  5768                           ;segmentDisplayDriver.c: 162:     LATB &= !(1<<5);
  5769  00196A  0E00               	movlw	0
  5770  00196C  6E8A               	movwf	138,c	;volatile
  5771                           
  5772                           ;segmentDisplayDriver.c: 163:     LATB &= !(1<<3);
  5773  00196E  0E00               	movlw	0
  5774  001970  6E8A               	movwf	138,c	;volatile
  5775                           
  5776                           ;segmentDisplayDriver.c: 164:     LATB &= !(1<<2);
  5777  001972  0E00               	movlw	0
  5778  001974  6E8A               	movwf	138,c	;volatile
  5779                           
  5780                           ;segmentDisplayDriver.c: 165:     LATB &= !(1<<0);
  5781  001976  0E00               	movlw	0
  5782  001978  6E8A               	movwf	138,c	;volatile
  5783                           
  5784                           ;segmentDisplayDriver.c: 166:     LATB &= !(1<<6);
  5785  00197A  0E00               	movlw	0
  5786  00197C  6E8A               	movwf	138,c	;volatile
  5787                           
  5788                           ;segmentDisplayDriver.c: 167:     LATB &= !(1<<4);
  5789  00197E  0E00               	movlw	0
  5790  001980  6E8A               	movwf	138,c	;volatile
  5791                           
  5792                           ;segmentDisplayDriver.c: 168:     LATB &= !(1<<2);
  5793  001982  0E00               	movlw	0
  5794  001984  6E8A               	movwf	138,c	;volatile
  5795  001986  0012               	return		;funcret
  5796  001988                     __end_of_clearDisplay:
  5797                           	opt callstack 0
  5798                           
  5799 ;; *************** function ___awmod *****************
  5800 ;; Defined at:
  5801 ;;		line 7 in file "D:\programs\pic\sources\c99\common\awmod.c"
  5802 ;; Parameters:    Size  Location     Type
  5803 ;;  dividend        2    0[COMRAM] int 
  5804 ;;  divisor         2    2[COMRAM] int 
  5805 ;; Auto vars:     Size  Location     Type
  5806 ;;  sign            1    5[COMRAM] unsigned char 
  5807 ;;  counter         1    4[COMRAM] unsigned char 
  5808 ;; Return value:  Size  Location     Type
  5809 ;;                  2    0[COMRAM] int 
  5810 ;; Registers used:
  5811 ;;		wreg, status,2, status,0
  5812 ;; Tracked objects:
  5813 ;;		On entry : 0/0
  5814 ;;		On exit  : 0/0
  5815 ;;		Unchanged: 0/0
  5816 ;; Data sizes:     COMRAM   BANK0   BANK1   BANK2   BANK3   BANK4   BANK5
  5817 ;;      Params:         4       0       0       0       0       0       0
  5818 ;;      Locals:         2       0       0       0       0       0       0
  5819 ;;      Temps:          0       0       0       0       0       0       0
  5820 ;;      Totals:         6       0       0       0       0       0       0
  5821 ;;Total ram usage:        6 bytes
  5822 ;; Hardware stack levels used:    1
  5823 ;; This function calls:
  5824 ;;		Nothing
  5825 ;; This function is called by:
  5826 ;;		_printTemperature
  5827 ;; This function uses a non-reentrant model
  5828 ;;
  5829                           
  5830                           	psect	text43
  5831  001604                     __ptext43:
  5832                           	opt callstack 0
  5833  001604                     ___awmod:
  5834                           	opt callstack 22
  5835  001604  0E00               	movlw	0
  5836  001606  6E06               	movwf	___awmod@sign^0,c
  5837  001608  BE02               	btfsc	(___awmod@dividend+1)^0,7,c
  5838  00160A  EF0B  F00B         	goto	i2u161_40
  5839  00160E  EF09  F00B         	goto	i2u161_41
  5840  001612                     i2u161_41:
  5841  001612  EF11  F00B         	goto	i2l2557
  5842  001616                     i2u161_40:
  5843  001616  6C01               	negf	___awmod@dividend^0,c
  5844  001618  1E02               	comf	(___awmod@dividend+1)^0,f,c
  5845  00161A  B0D8               	btfsc	status,0,c
  5846  00161C  2A02               	incf	(___awmod@dividend+1)^0,f,c
  5847  00161E  0E01               	movlw	1
  5848  001620  6E06               	movwf	___awmod@sign^0,c
  5849  001622                     i2l2557:
  5850  001622  BE04               	btfsc	(___awmod@divisor+1)^0,7,c
  5851  001624  EF18  F00B         	goto	i2u162_40
  5852  001628  EF16  F00B         	goto	i2u162_41
  5853  00162C                     i2u162_41:
  5854  00162C  EF1C  F00B         	goto	i2l2561
  5855  001630                     i2u162_40:
  5856  001630  6C03               	negf	___awmod@divisor^0,c
  5857  001632  1E04               	comf	(___awmod@divisor+1)^0,f,c
  5858  001634  B0D8               	btfsc	status,0,c
  5859  001636  2A04               	incf	(___awmod@divisor+1)^0,f,c
  5860  001638                     i2l2561:
  5861  001638  5003               	movf	___awmod@divisor^0,w,c
  5862  00163A  1004               	iorwf	(___awmod@divisor+1)^0,w,c
  5863  00163C  B4D8               	btfsc	status,2,c
  5864  00163E  EF23  F00B         	goto	i2u163_41
  5865  001642  EF25  F00B         	goto	i2u163_40
  5866  001646                     i2u163_41:
  5867  001646  EF49  F00B         	goto	i2l2577
  5868  00164A                     i2u163_40:
  5869  00164A  0E01               	movlw	1
  5870  00164C  6E05               	movwf	___awmod@counter^0,c
  5871  00164E  EF2D  F00B         	goto	i2l2567
  5872  001652                     i2l2565:
  5873  001652  90D8               	bcf	status,0,c
  5874  001654  3603               	rlcf	___awmod@divisor^0,f,c
  5875  001656  3604               	rlcf	(___awmod@divisor+1)^0,f,c
  5876  001658  2A05               	incf	___awmod@counter^0,f,c
  5877  00165A                     i2l2567:
  5878  00165A  AE04               	btfss	(___awmod@divisor+1)^0,7,c
  5879  00165C  EF32  F00B         	goto	i2u164_41
  5880  001660  EF34  F00B         	goto	i2u164_40
  5881  001664                     i2u164_41:
  5882  001664  EF29  F00B         	goto	i2l2565
  5883  001668                     i2u164_40:
  5884  001668                     i2l2569:
  5885  001668  5003               	movf	___awmod@divisor^0,w,c
  5886  00166A  5C01               	subwf	___awmod@dividend^0,w,c
  5887  00166C  5004               	movf	(___awmod@divisor+1)^0,w,c
  5888  00166E  5802               	subwfb	(___awmod@dividend+1)^0,w,c
  5889  001670  A0D8               	btfss	status,0,c
  5890  001672  EF3D  F00B         	goto	i2u165_41
  5891  001676  EF3F  F00B         	goto	i2u165_40
  5892  00167A                     i2u165_41:
  5893  00167A  EF43  F00B         	goto	i2l2573
  5894  00167E                     i2u165_40:
  5895  00167E  5003               	movf	___awmod@divisor^0,w,c
  5896  001680  5E01               	subwf	___awmod@dividend^0,f,c
  5897  001682  5004               	movf	(___awmod@divisor+1)^0,w,c
  5898  001684  5A02               	subwfb	(___awmod@dividend+1)^0,f,c
  5899  001686                     i2l2573:
  5900  001686  90D8               	bcf	status,0,c
  5901  001688  3204               	rrcf	(___awmod@divisor+1)^0,f,c
  5902  00168A  3203               	rrcf	___awmod@divisor^0,f,c
  5903  00168C  2E05               	decfsz	___awmod@counter^0,f,c
  5904  00168E  EF34  F00B         	goto	i2l2569
  5905  001692                     i2l2577:
  5906  001692  5006               	movf	___awmod@sign^0,w,c
  5907  001694  B4D8               	btfsc	status,2,c
  5908  001696  EF4F  F00B         	goto	i2u166_41
  5909  00169A  EF51  F00B         	goto	i2u166_40
  5910  00169E                     i2u166_41:
  5911  00169E  EF55  F00B         	goto	i2l2581
  5912  0016A2                     i2u166_40:
  5913  0016A2  6C01               	negf	___awmod@dividend^0,c
  5914  0016A4  1E02               	comf	(___awmod@dividend+1)^0,f,c
  5915  0016A6  B0D8               	btfsc	status,0,c
  5916  0016A8  2A02               	incf	(___awmod@dividend+1)^0,f,c
  5917  0016AA                     i2l2581:
  5918  0016AA  C001  F001         	movff	___awmod@dividend,?___awmod
  5919  0016AE  C002  F002         	movff	___awmod@dividend+1,?___awmod+1
  5920  0016B2  0012               	return		;funcret
  5921  0016B4                     __end_of___awmod:
  5922                           	opt callstack 0
  5923                           
  5924 ;; *************** function ___awdiv *****************
  5925 ;; Defined at:
  5926 ;;		line 7 in file "D:\programs\pic\sources\c99\common\awdiv.c"
  5927 ;; Parameters:    Size  Location     Type
  5928 ;;  dividend        2    0[COMRAM] int 
  5929 ;;  divisor         2    2[COMRAM] int 
  5930 ;; Auto vars:     Size  Location     Type
  5931 ;;  quotient        2    6[COMRAM] int 
  5932 ;;  sign            1    5[COMRAM] unsigned char 
  5933 ;;  counter         1    4[COMRAM] unsigned char 
  5934 ;; Return value:  Size  Location     Type
  5935 ;;                  2    0[COMRAM] int 
  5936 ;; Registers used:
  5937 ;;		wreg, status,2, status,0
  5938 ;; Tracked objects:
  5939 ;;		On entry : 0/0
  5940 ;;		On exit  : 0/0
  5941 ;;		Unchanged: 0/0
  5942 ;; Data sizes:     COMRAM   BANK0   BANK1   BANK2   BANK3   BANK4   BANK5
  5943 ;;      Params:         4       0       0       0       0       0       0
  5944 ;;      Locals:         4       0       0       0       0       0       0
  5945 ;;      Temps:          0       0       0       0       0       0       0
  5946 ;;      Totals:         8       0       0       0       0       0       0
  5947 ;;Total ram usage:        8 bytes
  5948 ;; Hardware stack levels used:    1
  5949 ;; This function calls:
  5950 ;;		Nothing
  5951 ;; This function is called by:
  5952 ;;		_printTemperature
  5953 ;; This function uses a non-reentrant model
  5954 ;;
  5955                           
  5956                           	psect	text44
  5957  001490                     __ptext44:
  5958                           	opt callstack 0
  5959  001490                     ___awdiv:
  5960                           	opt callstack 22
  5961  001490  0E00               	movlw	0
  5962  001492  6E06               	movwf	___awdiv@sign^0,c
  5963  001494  BE04               	btfsc	(___awdiv@divisor+1)^0,7,c
  5964  001496  EF51  F00A         	goto	i2u155_40
  5965  00149A  EF4F  F00A         	goto	i2u155_41
  5966  00149E                     i2u155_41:
  5967  00149E  EF57  F00A         	goto	i2l2513
  5968  0014A2                     i2u155_40:
  5969  0014A2  6C03               	negf	___awdiv@divisor^0,c
  5970  0014A4  1E04               	comf	(___awdiv@divisor+1)^0,f,c
  5971  0014A6  B0D8               	btfsc	status,0,c
  5972  0014A8  2A04               	incf	(___awdiv@divisor+1)^0,f,c
  5973  0014AA  0E01               	movlw	1
  5974  0014AC  6E06               	movwf	___awdiv@sign^0,c
  5975  0014AE                     i2l2513:
  5976  0014AE  BE02               	btfsc	(___awdiv@dividend+1)^0,7,c
  5977  0014B0  EF5E  F00A         	goto	i2u156_40
  5978  0014B4  EF5C  F00A         	goto	i2u156_41
  5979  0014B8                     i2u156_41:
  5980  0014B8  EF64  F00A         	goto	i2l2519
  5981  0014BC                     i2u156_40:
  5982  0014BC  6C01               	negf	___awdiv@dividend^0,c
  5983  0014BE  1E02               	comf	(___awdiv@dividend+1)^0,f,c
  5984  0014C0  B0D8               	btfsc	status,0,c
  5985  0014C2  2A02               	incf	(___awdiv@dividend+1)^0,f,c
  5986  0014C4  0E01               	movlw	1
  5987  0014C6  1A06               	xorwf	___awdiv@sign^0,f,c
  5988  0014C8                     i2l2519:
  5989  0014C8  0E00               	movlw	0
  5990  0014CA  6E08               	movwf	(___awdiv@quotient+1)^0,c
  5991  0014CC  0E00               	movlw	0
  5992  0014CE  6E07               	movwf	___awdiv@quotient^0,c
  5993  0014D0  5003               	movf	___awdiv@divisor^0,w,c
  5994  0014D2  1004               	iorwf	(___awdiv@divisor+1)^0,w,c
  5995  0014D4  B4D8               	btfsc	status,2,c
  5996  0014D6  EF6F  F00A         	goto	i2u157_41
  5997  0014DA  EF71  F00A         	goto	i2u157_40
  5998  0014DE                     i2u157_41:
  5999  0014DE  EF99  F00A         	goto	i2l2541
  6000  0014E2                     i2u157_40:
  6001  0014E2  0E01               	movlw	1
  6002  0014E4  6E05               	movwf	___awdiv@counter^0,c
  6003  0014E6  EF79  F00A         	goto	i2l2527
  6004  0014EA                     i2l2525:
  6005  0014EA  90D8               	bcf	status,0,c
  6006  0014EC  3603               	rlcf	___awdiv@divisor^0,f,c
  6007  0014EE  3604               	rlcf	(___awdiv@divisor+1)^0,f,c
  6008  0014F0  2A05               	incf	___awdiv@counter^0,f,c
  6009  0014F2                     i2l2527:
  6010  0014F2  AE04               	btfss	(___awdiv@divisor+1)^0,7,c
  6011  0014F4  EF7E  F00A         	goto	i2u158_41
  6012  0014F8  EF80  F00A         	goto	i2u158_40
  6013  0014FC                     i2u158_41:
  6014  0014FC  EF75  F00A         	goto	i2l2525
  6015  001500                     i2u158_40:
  6016  001500                     i2l2529:
  6017  001500  90D8               	bcf	status,0,c
  6018  001502  3607               	rlcf	___awdiv@quotient^0,f,c
  6019  001504  3608               	rlcf	(___awdiv@quotient+1)^0,f,c
  6020  001506  5003               	movf	___awdiv@divisor^0,w,c
  6021  001508  5C01               	subwf	___awdiv@dividend^0,w,c
  6022  00150A  5004               	movf	(___awdiv@divisor+1)^0,w,c
  6023  00150C  5802               	subwfb	(___awdiv@dividend+1)^0,w,c
  6024  00150E  A0D8               	btfss	status,0,c
  6025  001510  EF8C  F00A         	goto	i2u159_41
  6026  001514  EF8E  F00A         	goto	i2u159_40
  6027  001518                     i2u159_41:
  6028  001518  EF93  F00A         	goto	i2l2537
  6029  00151C                     i2u159_40:
  6030  00151C  5003               	movf	___awdiv@divisor^0,w,c
  6031  00151E  5E01               	subwf	___awdiv@dividend^0,f,c
  6032  001520  5004               	movf	(___awdiv@divisor+1)^0,w,c
  6033  001522  5A02               	subwfb	(___awdiv@dividend+1)^0,f,c
  6034  001524  8007               	bsf	___awdiv@quotient^0,0,c
  6035  001526                     i2l2537:
  6036  001526  90D8               	bcf	status,0,c
  6037  001528  3204               	rrcf	(___awdiv@divisor+1)^0,f,c
  6038  00152A  3203               	rrcf	___awdiv@divisor^0,f,c
  6039  00152C  2E05               	decfsz	___awdiv@counter^0,f,c
  6040  00152E  EF80  F00A         	goto	i2l2529
  6041  001532                     i2l2541:
  6042  001532  5006               	movf	___awdiv@sign^0,w,c
  6043  001534  B4D8               	btfsc	status,2,c
  6044  001536  EF9F  F00A         	goto	i2u160_41
  6045  00153A  EFA1  F00A         	goto	i2u160_40
  6046  00153E                     i2u160_41:
  6047  00153E  EFA5  F00A         	goto	i2l2545
  6048  001542                     i2u160_40:
  6049  001542  6C07               	negf	___awdiv@quotient^0,c
  6050  001544  1E08               	comf	(___awdiv@quotient+1)^0,f,c
  6051  001546  B0D8               	btfsc	status,0,c
  6052  001548  2A08               	incf	(___awdiv@quotient+1)^0,f,c
  6053  00154A                     i2l2545:
  6054  00154A  C007  F001         	movff	___awdiv@quotient,?___awdiv
  6055  00154E  C008  F002         	movff	___awdiv@quotient+1,?___awdiv+1
  6056  001552  0012               	return		;funcret
  6057  001554                     __end_of___awdiv:
  6058                           	opt callstack 0
  6059  0000                     
  6060                           	psect	text45
  6061  000000                     __ptext45:
  6062                           	opt callstack 0
  6063  000000                     
  6064                           	psect	rparam
  6065  0000                     
  6066                           	psect	temp
  6067  00004E                     btemp:
  6068                           	opt callstack 0
  6069  00004E                     	ds	1
  6070  0000                     int$flags	set	btemp
  6071  0000                     wtemp8	set	btemp+1
  6072  0000                     ttemp5	set	btemp+1
  6073  0000                     ttemp6	set	btemp+4
  6074  0000                     ttemp7	set	btemp+8
  6075                           tosu	equ	0xFFF
  6076                           tosh	equ	0xFFE
  6077                           tosl	equ	0xFFD
  6078                           stkptr	equ	0xFFC
  6079                           pclatu	equ	0xFFB
  6080                           pclath	equ	0xFFA
  6081                           pcl	equ	0xFF9
  6082                           tblptru	equ	0xFF8
  6083                           tblptrh	equ	0xFF7
  6084                           tblptrl	equ	0xFF6
  6085                           tablat	equ	0xFF5
  6086                           prodh	equ	0xFF4
  6087                           prodl	equ	0xFF3
  6088                           indf0	equ	0xFEF
  6089                           postinc0	equ	0xFEE
  6090                           postdec0	equ	0xFED
  6091                           preinc0	equ	0xFEC
  6092                           plusw0	equ	0xFEB
  6093                           fsr0h	equ	0xFEA
  6094                           fsr0l	equ	0xFE9
  6095                           wreg	equ	0xFE8
  6096                           indf1	equ	0xFE7
  6097                           postinc1	equ	0xFE6
  6098                           postdec1	equ	0xFE5
  6099                           preinc1	equ	0xFE4
  6100                           plusw1	equ	0xFE3
  6101                           fsr1h	equ	0xFE2
  6102                           fsr1l	equ	0xFE1
  6103                           bsr	equ	0xFE0
  6104                           indf2	equ	0xFDF
  6105                           postinc2	equ	0xFDE
  6106                           postdec2	equ	0xFDD
  6107                           preinc2	equ	0xFDC
  6108                           plusw2	equ	0xFDB
  6109                           fsr2h	equ	0xFDA
  6110                           fsr2l	equ	0xFD9
  6111                           status	equ	0xFD8


Data Sizes:
    Strings     0
    Constant    0
    Data        6
    BSS         28
    Persistent  16
    Stack       0

Auto Spaces:
    Space          Size  Autos    Used
    COMRAM           94     61      77
    BANK0           160     49      83
    BANK1           256      0       0
    BANK2           256      0       0
    BANK3           256      0       0
    BANK4           256      0       0
    BANK5           256      0       0

Pointer List with Targets:

    TMR3_SetInterruptHandler@InterruptHandler	PTR FTN()void  size(2) Largest target is 1
		 -> TMR3_DefaultInterruptHandler(), 

    TMR3_InterruptHandler	PTR FTN()void  size(2) Largest target is 1
		 -> TMR3_DefaultInterruptHandler(), Absolute function(), 

    TMR2_SetInterruptHandler@InterruptHandler	PTR FTN()void  size(2) Largest target is 1
		 -> TMR2_DefaultInterruptHandler(), 

    TMR2_InterruptHandler	PTR FTN()void  size(2) Largest target is 1
		 -> Absolute function(), TMR2_DefaultInterruptHandler(), 

    readInternalMax@temp	PTR int  size(2) Largest target is 2
		 -> max_internal_temp(BANK0[2]), 

    readPlateMax@temp	PTR int  size(2) Largest target is 2
		 -> max_plate_temp(BANK0[2]), 

    readSoilMin@temp	PTR int  size(2) Largest target is 2
		 -> min_soil_temp(BANK0[2]), 

    readSoilMax@temp	PTR int  size(2) Largest target is 2
		 -> max_soil_temp(BANK0[2]), 


Critical Paths under _main in COMRAM

    _main->___fltol
    _readTemperatureSensor->___fldiv
    ___flmul->___xxtofl
    ___fldiv->___flmul
    _ADCRead->_ADC_GetConversionResult
    _readSoilMin->_DATAEE_ReadByte
    _readSoilMax->_DATAEE_ReadByte
    _readPlateMax->_DATAEE_ReadByte
    _readInternalMax->_DATAEE_ReadByte
    _TMR3_Initialize->_TMR3_SetInterruptHandler
    _TMR2_Initialize->_TMR2_SetInterruptHandler

Critical Paths under _INTERRUPT_InterruptManager in COMRAM

    _TMR3_CallBack->_TMR3_DefaultInterruptHandler
    _TMR3_DefaultInterruptHandler->_setSwitchState
    _TMR2_DefaultInterruptHandler->_printTemperature
    _printTemperature->_printCharacter
    _printCharacter->___awdiv

Critical Paths under _main in BANK0

    _main->___fltol
    _readTemperatureSensor->___fldiv
    ___fltol->_readTemperatureSensor

Critical Paths under _INTERRUPT_InterruptManager in BANK0

    None.

Critical Paths under _main in BANK1

    None.

Critical Paths under _INTERRUPT_InterruptManager in BANK1

    None.

Critical Paths under _main in BANK2

    None.

Critical Paths under _INTERRUPT_InterruptManager in BANK2

    None.

Critical Paths under _main in BANK3

    None.

Critical Paths under _INTERRUPT_InterruptManager in BANK3

    None.

Critical Paths under _main in BANK4

    None.

Critical Paths under _INTERRUPT_InterruptManager in BANK4

    None.

Critical Paths under _main in BANK5

    None.

Critical Paths under _INTERRUPT_InterruptManager in BANK5

    None.

Call Graph Tables:

 ---------------------------------------------------------------------------------
 (Depth) Function   	        Calls       Base Space   Used Autos Params    Refs
 ---------------------------------------------------------------------------------
 (0) _main                                                 2     2      0   10420
                                             47 BANK0      2     2      0
                  _SYSTEM_Initialize
                    _TMR2_StartTimer
                            ___fltol
                        _openDisplay
                    _readInternalMax
                       _readPlateMax
                        _readSoilMax
                        _readSoilMin
              _readTemperatureSensor
              _setDisplayTemperature
                       _setStateLEDs
 ---------------------------------------------------------------------------------
 (1) _setStateLEDs                                         4     3      1     120
                                             16 COMRAM     4     3      1
 ---------------------------------------------------------------------------------
 (1) _setDisplayTemperature                                2     0      2     630
                                             16 COMRAM     2     0      2
 ---------------------------------------------------------------------------------
 (1) _readTemperatureSensor                               18    14      4    7777
                                             21 BANK0     18    14      4
                            _ADCRead
                  _ADC_SelectChannel
                            ___fladd
                            ___fldiv
                            ___flmul
                           ___xxtofl
 ---------------------------------------------------------------------------------
 (2) ___xxtofl                                            14    10      4     398
                                             16 COMRAM    14    10      4
 ---------------------------------------------------------------------------------
 (2) ___flmul                                             25    17      8    1896
                                             30 COMRAM    25    17      8
                           ___xxtofl (ARG)
 ---------------------------------------------------------------------------------
 (2) ___fldiv                                             25    17      8    2183
                                             55 COMRAM     4     4      0
                                              0 BANK0     21    13      8
                            ___fladd (ARG)
                            ___flmul (ARG)
                           ___xxtofl (ARG)
 ---------------------------------------------------------------------------------
 (2) ___fladd                                             16     8      8    2388
                                             16 COMRAM    16     8      8
 ---------------------------------------------------------------------------------
 (2) _ADC_SelectChannel                                    2     2      0      22
                                             16 COMRAM     2     2      0
 ---------------------------------------------------------------------------------
 (2) _ADCRead                                              2     0      2       0
                                             20 COMRAM     2     0      2
            _ADC_GetConversionResult
               _ADC_IsConversionDone
                _ADC_StartConversion
 ---------------------------------------------------------------------------------
 (3) _ADC_StartConversion                                  0     0      0       0
 ---------------------------------------------------------------------------------
 (3) _ADC_IsConversionDone                                 0     0      0       0
 ---------------------------------------------------------------------------------
 (3) _ADC_GetConversionResult                              4     2      2       0
                                             16 COMRAM     4     2      2
 ---------------------------------------------------------------------------------
 (1) _readSoilMin                                          8     6      2     143
                                             17 COMRAM     8     6      2
                    _DATAEE_ReadByte
 ---------------------------------------------------------------------------------
 (1) _readSoilMax                                          8     6      2     143
                                             17 COMRAM     8     6      2
                    _DATAEE_ReadByte
 ---------------------------------------------------------------------------------
 (1) _readPlateMax                                         8     6      2     143
                                             17 COMRAM     8     6      2
                    _DATAEE_ReadByte
 ---------------------------------------------------------------------------------
 (1) _readInternalMax                                      8     6      2     143
                                             17 COMRAM     8     6      2
                    _DATAEE_ReadByte
 ---------------------------------------------------------------------------------
 (2) _DATAEE_ReadByte                                      1     1      0      22
                                             16 COMRAM     1     1      0
 ---------------------------------------------------------------------------------
 (1) _openDisplay                                          0     0      0       0
 ---------------------------------------------------------------------------------
 (1) ___fltol                                             10     6      4    1057
                                             59 COMRAM     2     2      0
                                             39 BANK0      8     4      4
              _readTemperatureSensor (ARG)
 ---------------------------------------------------------------------------------
 (1) _TMR2_StartTimer                                      0     0      0       0
 ---------------------------------------------------------------------------------
 (1) _SYSTEM_Initialize                                    0     0      0     196
                     _ADC_Initialize
               _INTERRUPT_Initialize
              _OSCILLATOR_Initialize
             _PIN_MANAGER_Initialize
                    _TMR2_Initialize
                    _TMR3_Initialize
 ---------------------------------------------------------------------------------
 (2) _TMR3_Initialize                                      0     0      0      98
           _TMR3_SetInterruptHandler
 ---------------------------------------------------------------------------------
 (3) _TMR3_SetInterruptHandler                             2     0      2      98
                                             16 COMRAM     2     0      2
 ---------------------------------------------------------------------------------
 (2) _TMR2_Initialize                                      0     0      0      98
           _TMR2_SetInterruptHandler
 ---------------------------------------------------------------------------------
 (3) _TMR2_SetInterruptHandler                             2     0      2      98
                                             16 COMRAM     2     0      2
 ---------------------------------------------------------------------------------
 (2) _PIN_MANAGER_Initialize                               0     0      0       0
 ---------------------------------------------------------------------------------
 (2) _OSCILLATOR_Initialize                                0     0      0       0
 ---------------------------------------------------------------------------------
 (2) _INTERRUPT_Initialize                                 0     0      0       0
 ---------------------------------------------------------------------------------
 (2) _ADC_Initialize                                       0     0      0       0
 ---------------------------------------------------------------------------------
 Estimated maximum stack depth 3
 ---------------------------------------------------------------------------------
 (Depth) Function   	        Calls       Base Space   Used Autos Params    Refs
 ---------------------------------------------------------------------------------
 (4) _INTERRUPT_InterruptManager                           2     2      0    1817
                                             14 COMRAM     2     2      0
                           _TMR2_ISR
                           _TMR3_ISR
 ---------------------------------------------------------------------------------
 (5) _TMR3_ISR                                             0     0      0     340
                      _TMR3_CallBack
                    _TMR3_WriteTimer
 ---------------------------------------------------------------------------------
 (6) _TMR3_WriteTimer                                      2     0      2     240
                                              0 COMRAM     2     0      2
 ---------------------------------------------------------------------------------
 (6) _TMR3_CallBack                                        0     0      0     100
                   Absolute function *
       _TMR3_DefaultInterruptHandler *
 ---------------------------------------------------------------------------------
 (7) _TMR3_DefaultInterruptHandler                         6     6      0     100
                                              2 COMRAM     6     6      0
                     _setSwitchState
 ---------------------------------------------------------------------------------
 (8) _setSwitchState                                       2     0      2      98
                                              0 COMRAM     2     0      2
 ---------------------------------------------------------------------------------
 (5) _TMR2_ISR                                             0     0      0    1477
                      _TMR2_CallBack
 ---------------------------------------------------------------------------------
 (6) _TMR2_CallBack                                        0     0      0    1477
                   Absolute function *
       _TMR2_DefaultInterruptHandler *
 ---------------------------------------------------------------------------------
 (7) _TMR2_DefaultInterruptHandler                         0     0      0    1477
                   _printTemperature
 ---------------------------------------------------------------------------------
 (8) _printTemperature                                     2     2      0    1477
                                             12 COMRAM     2     2      0
                            ___awdiv
                            ___awmod
                       _clearDisplay
                     _printCharacter
                              _setDP
 ---------------------------------------------------------------------------------
 (9) _setDP                                                0     0      0       0
 ---------------------------------------------------------------------------------
 (9) _printCharacter                                       4     2      2     250
                                              8 COMRAM     4     2      2
                            ___awdiv (ARG)
                            ___awmod (ARG)
 ---------------------------------------------------------------------------------
 (9) _clearDisplay                                         0     0      0       0
 ---------------------------------------------------------------------------------
 (9) ___awmod                                              6     2      4     600
                                              0 COMRAM     6     2      4
 ---------------------------------------------------------------------------------
 (9) ___awdiv                                              8     4      4     604
                                              0 COMRAM     8     4      4
 ---------------------------------------------------------------------------------
 (7) Absolute function(Fake)                               0     0      0       0
 ---------------------------------------------------------------------------------
 Estimated maximum stack depth 9
 ---------------------------------------------------------------------------------

 Call Graph Graphs:

 _main (ROOT)
   _SYSTEM_Initialize
     _ADC_Initialize
     _INTERRUPT_Initialize
     _OSCILLATOR_Initialize
     _PIN_MANAGER_Initialize
     _TMR2_Initialize
       _TMR2_SetInterruptHandler
     _TMR3_Initialize
       _TMR3_SetInterruptHandler
   _TMR2_StartTimer
   ___fltol
     _readTemperatureSensor (ARG)
       _ADCRead
         _ADC_GetConversionResult
         _ADC_IsConversionDone
         _ADC_StartConversion
       _ADC_SelectChannel
       ___fladd
       ___fldiv
         ___fladd (ARG)
         ___flmul (ARG)
           ___xxtofl (ARG)
         ___xxtofl (ARG)
       ___flmul
         ___xxtofl (ARG)
       ___xxtofl
   _openDisplay
   _readInternalMax
     _DATAEE_ReadByte
   _readPlateMax
     _DATAEE_ReadByte
   _readSoilMax
     _DATAEE_ReadByte
   _readSoilMin
     _DATAEE_ReadByte
   _readTemperatureSensor
     _ADCRead
       _ADC_GetConversionResult
       _ADC_IsConversionDone
       _ADC_StartConversion
     _ADC_SelectChannel
     ___fladd
     ___fldiv
       ___fladd (ARG)
       ___flmul (ARG)
         ___xxtofl (ARG)
       ___xxtofl (ARG)
     ___flmul
       ___xxtofl (ARG)
     ___xxtofl
   _setDisplayTemperature
   _setStateLEDs

 _INTERRUPT_InterruptManager (ROOT)
   _TMR2_ISR
     _TMR2_CallBack
       Absolute function(Fake) *
       _TMR2_DefaultInterruptHandler *
         _printTemperature
           ___awdiv
           ___awmod
           _clearDisplay
           _printCharacter
             ___awdiv (ARG)
             ___awmod (ARG)
           _setDP
   _TMR3_ISR
     _TMR3_CallBack
       Absolute function(Fake) *
       _TMR3_DefaultInterruptHandler *
         _setSwitchState
     _TMR3_WriteTimer

 Address spaces:
Name               Size   Autos  Total    Cost      Usage
BIGRAM             5FF      0       0      17        0.0%
EEDATA             100      0       0       0        0.0%
BITBANK5           100      0       0      16        0.0%
BANK5              100      0       0      14        0.0%
BITBANK4           100      0       0      12        0.0%
BANK4              100      0       0      13        0.0%
BITBANK3           100      0       0      10        0.0%
BANK3              100      0       0      11        0.0%
BITBANK2           100      0       0       8        0.0%
BANK2              100      0       0       9        0.0%
BITBANK1           100      0       0       6        0.0%
BANK1              100      0       0       7        0.0%
BITBANK0            A0      0       0       4        0.0%
BANK0               A0     31      53       5       51.9%
BITCOMRAM           5E      0       0       0        0.0%
COMRAM              5E     3D      4D       1       81.9%
BITSFR               0      0       0     200        0.0%
SFR                  0      0       0     200        0.0%
STACK                0      0       0       2        0.0%
NULL                 0      0       0       0        0.0%
ABS                  0      0      A0      15        0.0%
DATA                 0      0      A0       3        0.0%
CODE                 0      0       0       0        0.0%


Microchip Technology PIC18 Macro Assembler V2.10 build 88905656 
Symbol Table                                                                                   Thu Jan 23 23:39:03 2020

                        __end_of_TMR2_SetInterruptHandler 1A66  
                                            ___fldiv@aexp 0074  
                                            ___fldiv@bexp 0073  
                                            ___fldiv@sign 006C  
                                                      l85 19BE  
                                                      l88 1A6E  
                                            ___awdiv@sign 0006  
                               setDisplayTemperature@temp 0011  
                                         printCharacter@n 0009  
                                            __CFG_CP0$OFF 000000  
                                            __CFG_CP1$OFF 000000  
                                            __CFG_CP2$OFF 000000  
                                            __CFG_CP3$OFF 000000  
                                             __CFG_LVP$ON 000000  
                                                     l121 17C2  
                                                     l142 19D6  
                                                     l151 1A14  
                                                     l217 1A28  
                                                     l145 1A8E  
                                                     l233 117A  
                                                     l139 19EC  
                                                     l252 185E  
                                                     l148 1A00  
                                                     l420 1602  
                                                     l317 1A64  
                                                     l246 182A  
                                                     l255 1892  
                                                     l239 1940  
                                                     l249 17F6  
                                                     l339 1A96  
                                                     l515 1A5A  
                                                     l292 19A4  
                                                     l295 1A92  
                                                     l375 1A50  
                                                     l369 1A46  
                                                     l488 1964  
                                                     l833 1392  
                                            __CFG_CPB$OFF 000000  
                                                     _PR2 000FCB  
                                            __CFG_CPD$OFF 000000  
                                         __end_of_ADCRead 1942  
                                            __CFG_BORV$18 000000  
                                            ___awmod@sign 0006  
                                         _TMR2_Initialize 1988  
                                                     tosl 000FFD  
                                                     wreg 000FE8  
                                            ___flmul@aexp 0030  
                                            ___flmul@bexp 0031  
                                            ___flmul@sign 002B  
                                            ___flmul@temp 0036  
                                            ___flmul@prod 0032  
                                            ___fltol@exp1 003D  
                                                    l1120 0B5C  
                                                    l1131 0C1A  
                                                    l1123 0B20  
                                                    l1132 0C08  
                                                    l1205 0E48  
                                                    l1118 0CFC  
                                                    l1150 05FC  
                                                    l1064 0266  
                                                    l1160 0858  
                                                    l1081 0380  
                                                    l1073 0536  
                                                    l1065 0254  
                                                    l1129 0BA2  
                                                    l1090 0450  
                                                    l1066 021A  
                                                    l1154 0960  
                                                    l1091 043E  
                                                    l1157 07F2  
                                                    l3101 0552  
                                                    l1167 0922  
                                                    l1159 086A  
                                                    l3111 058A  
                                                    l3103 0554  
                                                    l1191 0D54  
                                                    l3201 0894  
                                                    l3121 05B6  
                                                    l3113 059A  
                                                    l3105 0564  
                                                    l1194 0EB0  
                                                    l3211 090A  
                                                    l3203 08BE  
                                                    l3131 060C  
                                                    l3123 05C6  
                                                    l3115 05A0  
                                                    l3107 0574  
                                         _timer3ReloadVal 0046  
                                                    l3213 0926  
                                                    l3221 094C  
                                                    l3205 08C2  
                                                    l3141 0646  
                                                    l3133 061C  
                                                    l3125 05D6  
                                                    l3117 05A6  
                                                    l3109 0584  
                                                    l1198 0DEC  
                                                    l3223 0950  
                                                    l3215 0936  
                                                    l3207 08DC  
                                                    l3151 0698  
                                                    l3143 065C  
                                                    l3127 05E6  
                                                    l3119 05B4  
                                                    l3231 0D1E  
                                                    l3217 0944  
                                                    l3209 08F0  
                                                    l3161 06DE  
                                                    l3153 06A6  
                                                    l3145 0668  
                                                    l3137 0630  
                                                    l3129 05EC  
                                                    l3241 0D96  
                                                    l3233 0D64  
                                                    l3321 1556  
                                                    l3219 0946  
                                                    l3171 074C  
                                                    l3163 06F8  
                                                    l3155 06B2  
                                                    l3147 0680  
                                                    l3139 063C  
                                                    l3251 0E1E  
                                                    l3243 0DA2  
                                                    l3235 0D7A  
                                                    l3227 0D00  
                                                    l3315 1A3E  
                                                    l3331 15B0  
                                                    l3323 1572  
                                                    l2701 1994  
                                                    l3317 1A48  
                                                    l3181 07E2  
                                                    l3173 0776  
                                                    l3165 0708  
                                                    l3157 06C2  
                                                    l3149 068C  
                                                    l3261 0E5C  
                                                    l3253 0E2A  
                                                    l3245 0DD4  
                                                    l3229 0D10  
                                                    l3333 15B6  
                                                    l3325 1578  
                                                    l3341 15C8  
                                                    l2703 19A0  
                                                    l3319 1A90  
                                                    l2711 1A18  
                                                    l3191 0822  
                                                    l3183 07F0  
                                                    l3175 07AC  
                                                    l3167 0724  
                                                    l3159 06CE  
                                                    l3263 0E80  
                                                    l3255 0E38  
                                                    l3247 0DD6  
                                                    l3239 0D8E  
                                                    l3335 15BC  
                                                    l2705 19D8  
                                                    l3281 19B6  
                                                    l3273 19A6  
                                                    l2721 1A24  
                                                    l2713 1A1C  
                                                    l2641 19EE  
                                                    l2801 016A  
                                                    l3601 0A5E  
                                                    l3193 0850  
                                                    l3185 0802  
                                                    l3177 07BA  
                                                    l3169 0730  
                                                    l3097 0538  
                                                    l3265 0E90  
                                                    l3257 0E56  
                                                    l3249 0DE2  
                                                    l3337 15C2  
                                                    l3329 157E  
                                                    l3283 19BA  
                                                    l3275 19AA  
                                                    l2723 1A26  
                                                    l2715 1A1E  
                                                    l3291 17E6  
                                                    l2731 1934  
                                                    l2707 19C2  
                                                    l2811 0188  
                                                    l2803 0178  
                                                    l3611 0A86  
                                                    l3603 0A62  
                                                    l3187 0810  
                                                    l3179 07D8  
                                                    l3099 0544  
                                                    l3267 0E9E  
                                                    l3259 0E58  
                                                    l2653 1A52  
                                                    l3277 19AE  
                                                    l2717 1A20  
                                                    l3293 182C  
                                                    l3285 17F8  
                                                    l2645 1A02  
                                                    l2709 19D4  
                                                    l2901 03C4  
                                                    l2821 019C  
                                                    l2813 018C  
                                                    l2805 017C  
                                                    l3621 0AD4  
                                                    l3197 087A  
                                                    l3189 0814  
                                                    l3269 0EA0  
                                                    l3701 10B6  
                                                    l2671 1A94  
                                                    l3279 19B2  
                                                    l3711 12A4  
                                                    l2719 1A22  
                                                    l3295 184E  
                                                    l3287 181A  
                                                    l2639 1A8C  
                                                    l2727 191C  
                                                    l2911 03EE  
                                                    l2903 03D2  
                                                    l2831 01B0  
                                                    l2823 01A0  
                                                    l2815 0190  
                                                    l2807 0180  
                                                    l3631 0B1E  
                                                    l3623 0AE4  
                                                    l3615 0A9A  
                                                    l3607 0A76  
                                                    l3199 0886  
                                                    l3703 1110  
                                                    l2673 178E  
                                                    l2649 1A5C  
                                                    l2681 1942  
                                                    l3721 12F4  
                                                    l3297 1860  
                                                    l3289 17C4  
                                                    l2729 1920  
                                                    l2921 0420  
                                                    l2913 03FE  
                                                    l2905 03D4  
                                                    l2841 0202  
                                                    l2833 01B4  
                                                    l2825 01A4  
                                                    l2817 0194  
                                                    l2809 0184  
                                                    l2761 0092  
                                                    l3641 0B6C  
                                                    l3633 0B2A  
                                                    l3625 0AEC  
                                                    l3617 0AB4  
                                                    l3609 0A86  
                                                    l3561 097E  
                                                    l3705 116A  
                                                    l2675 17B6  
                                                    l2691 1954  
                                                    l2683 1944  
                                                    l3731 131E  
                                                    l3723 12F8  
                                                    l3715 12B8  
                                                    l3299 1882  
                                                    l2931 047A  
                                                    l2923 0436  
                                                    l2907 03E2  
                                                    l2915 0400  
                                                    l2851 0246  
                                                    l2843 0212  
                                                    l2827 01A8  
                                                    l2819 0198  
                                                    l2835 01B8  
                                                    l2771 00C6  
                                                    l2763 0094  
                                                    l3643 0B82  
                                                    l3651 0BB2  
                                                    l3635 0B48  
                                                    l3627 0AFC  
                                                    l3619 0AC4  
                                                    l3571 09B2  
                                                    l3563 0980  
                                                    l2677 17C0  
                                                    l2693 1960  
                                                    l2685 1948  
                                                    l3741 1346  
                                                    l3733 1328  
                                                    l3725 1306  
                                                    l3717 12E2  
                                                    l3709 128C  
                                                    l2941 04F6  
                                                    l2933 04B4  
                                                    l2909 03EA  
                                                    l2917 040E  
                                                    l2853 0248  
                                                    l2845 0228  
                                                    l2837 01BC  
                                                    l2829 01AC  
                                                    l2781 00F8  
                                                    l2765 00A4  
                                                    l2773 00CE  
                                                    l2757 0078  
                                                    l3653 0BC0  
                                                    l3645 0B88  
                                                    l3637 0B4A  
                                                    l3629 0B10  
                                                    l3581 09E4  
                                                    l3565 0990  
                                                    l3573 09BA  
                                                    l3557 0962  
                                                    l2679 1A66  
                                                    l2695 1988  
                                                    l2687 1950  
                                                    l3743 1352  
                                                    l3735 1332  
                                                    l3719 12E4  
                                                    l2951 0516  
                                                    l2943 04FA  
                                                    l2927 0460  
                                                    l2935 04B6  
                                                    l2919 0412  
                                                    l2871 02D0  
                                                    l2863 0298  
                                                    l2855 0252  
                                                    l2847 0234  
                                                    l2839 01E6  
                                                    l2791 012E  
                                                    l2783 00FE  
                                                    l2775 00DE  
                                                    l2767 00B4  
                                                    l2759 0084  
                                                    l3663 0C2A  
                                                    l3671 0C72  
                                                    l3655 0BC4  
                                                    l3647 0B92  
                                                    l3639 0B5A  
                                                    l3591 0A18  
                                                    l3583 09E6  
                                                    l3575 09CA  
                                                    l3567 09A0  
                                                    l3559 0970  
                                                    l2697 1990  
                                                    l2689 1952  
                                                    l3745 1362  
                                                    l2953 0524  
                                                    l2945 0508  
                                                    l2937 04C6  
                                                    l2929 046C  
                                                    l2873 02D4  
                                                    l2865 02A8  
                                                    l2857 0274  
                                                    l2881 02F4  
                                                    l2849 0238  
                                                    l2793 013E  
                                                    l2785 010C  
                                                    l2777 00E4  
                                                    l2769 00C4  
                                                    l3681 0CDC  
                                                    l3673 0C8C  
                                                    l3665 0C36  
                                                    l3657 0BD2  
                                                    l3649 0BA0  
                                                    l3585 09F6  
                                                    l3593 0A20  
                                                    l3577 09D0  
                                                    l3569 09B0  
                                                    l3761 0EDA  
                                                    l3753 0EB2  
                                                    l2699 1992  
                                                    l3747 1372  
                                                    l2955 0526  
                                                    l2947 050E  
                                                    l2939 04D6  
                                                    l2883 031A  
                                                    l2891 0370  
                                                    l2875 02E2  
                                                    l2867 02B6  
                                                    l2859 0284  
                                                    l2795 0140  
                                                    l2787 010E  
                                                    l2779 00F6  
                                                    l3683 0CEA  
                                                    l3675 0CA2  
                                                    l3667 0C44  
                                                    l3659 0C00  
                                                    l3595 0A30  
                                                    l3587 0A06  
                                                    l3579 09D6  
                                                    l3851 1592  
                                                    l3771 0F8E  
                                                    l3763 0EE6  
                                                    l3755 0EB6  
                                                    l3749 1382  
                                                    l2949 0510  
                                                    l2893 0396  
                                                    l2885 034E  
                                                    l2877 02E4  
                                                    l2869 02C4  
                                                    l2789 011E  
                                                    l2797 0148  
                                                    l3685 0CF0  
                                                    l3677 0CBC  
                                                    l3669 0C6E  
                                                    l3597 0A46  
                                                    l3589 0A16  
                                                    l3853 15DC  
                                                    l3781 0FA2  
                                                    l3773 0F9A  
                                                    l3765 0F10  
                                                    l3757 0EC2  
                                                    l2895 03A6  
                                                    l2887 0350  
                                                    l2879 02EE  
                                                    l2799 0158  
                                                    l3687 0CF2  
                                                    l3679 0CD8  
                                                    l3599 0A56  
                                                    l3695 105C  
                                                    l3783 0FAC  
                                                    l3775 0F9E  
                                                    l3767 0F3A  
                                                    l3759 0ECE  
                                                    l2889 0360  
                                                    l3697 1070  
                                                    l3785 0FD6  
                                                    l3777 0FA2  
                                                    l3769 0F64  
                                                    l2899 03BA  
                                                    l3699 1070  
                                                    l3787 1000  
                                                    l3779 0FA2  
                                                    l3789 102A  
                                                    u2000 02B6  
                                                    u2001 02B2  
                                                    u2010 02C4  
                                                    u2011 02C0  
                                                    u2100 040E  
                                                    u2020 02E2  
                                                    u2101 040A  
                                                    u2021 02DE  
                                                    u2110 0420  
                                                    u2030 031A  
                                                    u2111 041C  
                                                    u2031 0316  
                                                    u2200 0508  
                                                    u2120 0436  
                                                    u2040 0360  
                                                    u3000 09F6  
                                                    u2201 0504  
                                                    u2121 0432  
                                                    u2041 035C  
                                                    u3001 09F2  
                                                    u2210 0524  
                                                    u2130 044C  
                                                    u2050 0396  
                                                    u3010 0A06  
                                                    u2211 0520  
                                                    u2131 0448  
                                                    u2051 0392  
                                                    u3011 0A02  
                                                    u2140 0460  
                                                    u2060 03A6  
                                                    u3100 0BC0  
                                                    u3020 0A46  
                                                    u2141 045C  
                                                    u2061 03A2  
                                                    u3101 0BBC  
                                                    u3021 0A42  
                                                    _LATA 000F89  
                                                    u2150 047A  
                                                    u2070 03D2  
                                                    u3110 0BD2  
                                                    u3030 0A86  
                                                    _LATB 000F8A  
                                                    u2151 0476  
                                                    u2071 03CE  
                                                    u3111 0BCE  
                                                    u3031 0A82  
                                                    _LATC 000F8B  
                                                    u3200 12D8  
                                                    u2160 04B4  
                                                    u2080 03E2  
                                                    u3120 0C00  
                                                    u3040 0AFC  
                                                    _LATD 000F8C  
                                                    u2161 04B0  
                                                    u2081 03DE  
                                                    u3121 0BFC  
                                                    u3041 0AF8  
                                                    _LATE 000F8D  
                                                    u3210 1306  
                                                    u2170 04C6  
                                                    u2090 03FE  
                                                    u3130 0C16  
                                                    u3050 0B1E  
                                                    u3211 1302  
                                                    u2171 04C2  
                                                    u2091 03FA  
                                                    u3131 0C12  
                                                    u3051 0B1A  
                                                    u3220 131A  
                                                    u2180 04D6  
                                                    u3140 0C2A  
                                                    u3060 0B48  
                                                    u2500 05D6  
                                                    u3221 1316  
                                                    u3205 12CE  
                                                    u2181 04D2  
                                                    u3141 0C26  
                                                    u3061 0B44  
                                                    u2501 05D2  
                                                    u3230 1342  
                                                    u1710 19FE  
                                                    u2190 04F6  
                                                    u3150 0C44  
                                                    u3070 0B6C  
                                                    u2510 060C  
                                                    u3231 133E  
                                                    u1711 19F8  
                                                    u2191 04F2  
                                                    u3151 0C40  
                                                    u3071 0B68  
                                                    u2511 0608  
                                                    u3240 1362  
                                                    u1720 1A00  
                                                    u3160 0C8C  
                                                    u3080 0B82  
                                                    u2600 0894  
                                                    u2520 061C  
                                                    u3241 135E  
                                                    u3161 0C88  
                                                    u3081 0B7E  
                                                    u2601 0890  
                                                    u2521 0618  
                                                    u3250 1372  
                                                    u3170 0CBC  
                                                    u3090 0BA0  
                                                    u2610 08DC  
                                                    u2530 0796  
                                                    u2450 0552  
                                                    u3251 136E  
                                                    u3171 0CB8  
                                                    u3091 0B9C  
                                                    u2611 08D8  
                                                    u2451 054E  
                                                    u1900 016A  
                                                    u3180 0CEA  
                                                    u2620 090A  
                                                    u2540 07F0  
                                                    u2460 0564  
                                                    u2700 0E48  
                                                    u1901 0166  
                                                    u3181 0CE6  
                                                    u2621 0906  
                                                    u2541 07EC  
                                                    u2461 0560  
                                                    u2701 0E44  
                                                    u3190 12A4  
                                                    u1910 0178  
                                                    u1830 0092  
                                                    u2630 0944  
                                                    u2550 0810  
                                                    u2470 0574  
                                                    u2710 0E56  
                                                    u3191 12A0  
                                                    u1911 0174  
                                                    u1831 008E  
                                                    u2631 0940  
                                                    u2551 080C  
                                                    u2535 078C  
                                                    u2471 0570  
                                                    u2711 0E52  
                                                    u1920 01E6  
                                                    u1840 00A4  
                                                    u2560 0822  
                                                    u2480 05B4  
                                                    u2720 0E90  
                                                    u2640 0D10  
                                                    u1921 01E2  
                                                    u1841 00A0  
                                                    u2561 081E  
                                                    u2481 05B0  
                                                    u2721 0E8C  
                                                    u2641 0D0C  
                                                    u1770 1934  
                                                    u1930 01FE  
                                                    u1850 00B4  
                                                    u2570 0850  
                                                    u2490 05C6  
                                                    u2730 0E9E  
                                                    u2650 0D1E  
                                                    u1771 1930  
                                                    u1931 01F8  
                                                    u1851 00B0  
                                                    u2571 084C  
                                                    u2491 05C2  
                                                    u2731 0E9A  
                                                    u2651 0D1A  
                                                    u1940 0200  
                                                    u1860 00F6  
                                                    u2580 0866  
                                                    u2660 0D7A  
                                                    u1861 00F2  
                                                    u2581 0862  
                                                    u2661 0D76  
                                                    u1950 0228  
                                                    u1870 010C  
                                                    u2590 087A  
                                                    u2670 0DD0  
                                                    u1951 0224  
                                                    u1871 0108  
                                                    u2591 0876  
                                                    u2671 0DCC  
                                                    u1960 0246  
                                                    u1880 011E  
                                                    u2680 0E1A  
                                                    u1961 0242  
                                                    u1881 011A  
                                                    u2681 0E16  
                                                    u1970 0266  
                                                    u1890 012E  
                                                    u2690 0E38  
                                                    u1971 0262  
                                                    u1891 012A  
                                                    u2691 0E34  
                                                    u1980 0274  
                                                    u1981 0270  
                                                    u1990 0284  
                                                    u1991 0280  
                                                    u2960 097E  
                                                    u2961 097A  
                                                    u2970 0990  
                                                    u2971 098C  
                                                    u2980 09A0  
                                                    u2981 099C  
                                                    u2990 09E4  
                                                    u2991 09E0  
                                                    _TMR2 000FCC  
                                                    _TMR3 000FB2  
                                                    _WPUB 000F7C  
                                                    _main 0EB2  
                                                    fsr2h 000FDA  
                                                    fsr1l 000FE1  
                                                    fsr2l 000FD9  
                                                    btemp 004E  
                               __size_of_printTemperature 0110  
                                                    prodh 000FF4  
                                                    prodl 000FF3  
                                                    start 0074  
                                           __CFG_IESO$OFF 000000  
                                         ___fldiv@new_exp 006D  
                                         _TMR3_Initialize 1942  
                                           __CFG_MCLRE$ON 000000  
                                   _setDisplayTemperature 1A3E  
                                            ___param_bank 000000  
                                         _readInternalMax 1860  
                                    __end_of_clearDisplay 1988  
                          __size_of_OSCILLATOR_Initialize 000A  
                           __end_of_OSCILLATOR_Initialize 1A70  
                                           ___fltol@sign1 003C  
                                         __end_of___fladd 0538  
                                                   ?_main 0001  
                                         __end_of___fldiv 0CFE  
                                         __end_of___awdiv 1554  
                                                   _EEADR 000FA9  
                                         __end_of___awmod 16B4  
                                         __end_of___flmul 0962  
                                         __end_of___fltol 1394  
                                                   _ANSEL 000F7E  
                                         ___awdiv@divisor 0003  
                                                   _T2CON 000FCA  
                                            ?_readSoilMax 0012  
                                                   _T3CON 000FB1  
                                            ?_readSoilMin 0012  
                                          __CFG_DEBUG$OFF 000000  
                                                   i2l310 1A80  
                                                   i2l320 1A86  
                                                   i2l402 148E  
                                                   i2l314 18F2  
                                                   i2l405 1A9A  
                                                   i2l502 191A  
                                                   i2l350 0068  
                                                   i2l408 1986  
                                                   i2l440 1A78  
                                                   i2l512 18C2  
                                                   i2l345 0044  
                                                   i2l346 0068  
                                                   i2l508 1A3C  
                                                   i2l381 128A  
                                                   i2l533 172E  
                                                   i2l780 16B2  
                                                   i2l767 1552  
                                         ___awdiv@counter 0005  
                                                   _TMR3H 000FB3  
                                                   _TMR3L 000FB2  
                                                   _PORTD 000F83  
                                                   _TRISA 000F92  
                                                   _TRISB 000F93  
                                                   _TRISC 000F94  
                                                   _TRISD 000F95  
                                                   _TRISE 000F96  
                        __size_of_ADC_GetConversionResult 0014  
                                           __CFG_PWRT$OFF 000000  
                                           __CFG_WRT0$OFF 000000  
                                           __CFG_WRT1$OFF 000000  
                                           __CFG_WRT2$OFF 000000  
                       __size_of_TMR3_SetInterruptHandler 000A  
                                           __CFG_WRT3$OFF 000000  
                               ?_TMR3_SetInterruptHandler 0011  
                                          __CFG_EBTR0$OFF 000000  
                                          __CFG_FCMEN$OFF 000000  
                                          __CFG_EBTR1$OFF 000000  
                                          __CFG_EBTR2$OFF 000000  
                                          __CFG_EBTR3$OFF 000000  
                                        __end_of_TMR2_ISR 1A82  
                                           __CFG_WRTB$OFF 000000  
                                        __end_of_TMR3_ISR 1A3E  
                                           __CFG_WRTC$OFF 000000  
                                           __CFG_WRTD$OFF 000000  
                                         _DATAEE_ReadByte 1A16  
                                          __CFG_EBTRB$OFF 000000  
                          ??_TMR3_DefaultInterruptHandler 0003  
                                                   _setDP 1A98  
                                        ??_printCharacter 000B  
                                                   pclath 000FFA  
                                                   tablat 000FF5  
                                                   ttemp5 004F  
                                                   ttemp6 0052  
                                                   ttemp7 0056  
                                                   status 000FD8  
                                                   wtemp8 004F  
                                          __CFG_HFOFST$ON 000000  
                                         _TMR2_StartTimer 1A90  
                                          __CFG_PBADEN$ON 000000  
                                         __initialization 1730  
                                            __end_of_main 105C  
                                 __end_of_TMR2_Initialize 19A6  
                             ?_INTERRUPT_InterruptManager 0001  
                                               ??_ADCRead 0017  
                                _TMR2_SetInterruptHandler 1A5C  
                                                  ??_main 003E  
                                            ?_openDisplay 0001  
                                           __activetblptr 000002  
                                   _TMR3_InterruptHandler 00A3  
                           __size_of_ADC_IsConversionDone 0014  
                                           ?_readPlateMax 0012  
                                                  _ADCON0 000FC2  
                                                  _ADCON1 000FC1  
                                                  _ADCON2 000FC0  
                                                  ?_setDP 0001  
                                                  _ADRESH 000FC4  
                                                  _ADRESL 000FC3  
                                                  _EEDATA 000FA8  
                                                  _EECON2 000FA7  
                                        ___awdiv@dividend 0001  
                                                  _ANSELH 000F7F  
                                 __end_of_TMR3_Initialize 1966  
                                                  i2l2511 14AA  
                                                  i2l2503 1A98  
                                                  i2l2521 14D0  
                                                  i2l2513 14AE  
                                                  i2l2505 1490  
                                                  i2l2601 11B6  
                                                  i2l2531 1506  
                                                  i2l2523 14E2  
                                                  i2l2515 14BC  
                                                  i2l2507 1494  
                                                  i2l2611 11FA  
                                                  i2l2603 11D6  
                                                  i2l2533 151C  
                                                  i2l2525 14EA  
                                                  i2l2541 1532  
                                                  i2l2517 14C4  
                                                  i2l2509 14A2  
                                                  i2l2613 11FE  
                                                  i2l2605 11DE  
                                          __CFG_WDTEN$OFF 000000  
                                                  i2l2543 1542  
                                                  i2l2535 1524  
                                                  i2l2527 14F2  
                                                  i2l2519 14C8  
                                                  i2l2551 1608  
                                                  i2l2471 1966  
                                                  i2l2631 1264  
                                                  i2l2615 1200  
                                                  i2l2607 11F2  
                                                  i2l2623 1244  
                                                  i2l3351 1A7A  
                                                  i2l2545 154A  
                                                  i2l2537 1526  
                                                  i2l2529 1500  
                                                  i2l2561 1638  
                                                  i2l2553 1616  
                                                  i2l2481 13BE  
                                                  i2l2473 1394  
                                                  i2l2633 1266  
                                                  i2l2625 1258  
                                                  i2l2617 121C  
                                                  i2l2609 11F6  
                                                  i2l3353 1A7C  
                                                  i2l2539 152C  
                                                  i2l2571 167E  
                                                  i2l2563 164A  
                                                  i2l2555 161E  
                                                  i2l2491 1400  
                                                  i2l2483 13CC  
                                                  i2l2475 1398  
                                                  i2l2627 125C  
                                                  i2l2619 123C  
                                                  i2l2651 1A82  
                                                  i2l3355 1A2A  
                                                  i2l2581 16AA  
                                                  i2l2573 1686  
                                                  i2l2565 1652  
                                                  i2l2557 1622  
                                                  i2l2549 1604  
                                                  i2l2493 1412  
                                                  i2l2485 13D8  
                                                  i2l2477 13A8  
                                                  i2l2629 1260  
                                                  i2l2637 1A70  
                                                  i2l2661 16F0  
                                                  i2l2741 1902  
                                                  i2l3357 1A2C  
                                                  i2l2575 168C  
                                                  i2l2567 165A  
                                                  i2l2559 1630  
                                                  i2l2487 13E6  
                                                  i2l2479 13B0  
                                                  i2l2591 1196  
                                                  i2l2735 18C4  
                                                  i2l2663 1702  
                                                  i2l2655 16B4  
                                                  i2l2751 1916  
                                                  i2l2743 1904  
                                                  i2l3359 1A38  
                                                  i2l2569 1668  
                                                  i2l2577 1692  
                                                  i2l2489 13F6  
                                                  i2l2497 1422  
                                                  i2l2593 11A8  
                                                  i2l2585 117C  
                                                  i2l2737 18D8  
                                                  i2l2665 170E  
                                                  i2l2657 16D8  
                                                  i2l2753 1894  
                                                  i2l2745 1908  
                                                  i2l2579 16A2  
                                                  i2l2595 11AC  
                                                  i2l2587 118E  
                                                  i2l2659 16DC  
                                                  i2l2667 172A  
                                                  i2l2755 18A8  
                                                  i2l2747 190C  
                                                  i2l2739 18F4  
                                                  i2l3491 0052  
                                                  i2l3483 0012  
                                                  i2l2597 11B0  
                                                  i2l2669 172C  
                                                  i2l2749 1912  
                                                  i2l3493 0060  
                                                  i2l3485 0020  
                                                  i2l2599 11B4  
                                                  i2l3487 002E  
                                                  i2l3489 003C  
                                                  i2l3855 1438  
                                                  _TABLAT 000FF5  
                                                  _OSCCON 000FD3  
                                 __size_of_setSwitchState 000A  
                                 __end_of_readInternalMax 1894  
                          __size_of_readTemperatureSensor 0120  
                                        __end_of___xxtofl 0EB2  
                           __end_of_readTemperatureSensor 117C  
                                         _TMR3_WriteTimer 18F4  
                                  ?_setDisplayTemperature 0011  
                                          __CFG_XINST$OFF 000000  
                                               ??___fladd 0019  
                                               ??___fldiv 0038  
                                               ??___awdiv 0005  
                                          __CFG_STVREN$ON 000000  
                                               ??___awmod 0005  
                                               ??___flmul 0027  
                                               ??___fltol 008B  
                                                  clear_0 176E  
                                                  clear_1 177A  
                                        ___awdiv@quotient 0007  
                                         ___awmod@divisor 0003  
                                         ___awmod@counter 0005  
                                 __end_of_DATAEE_ReadByte 1A2A  
                                      setStateLEDs@rState 0014  
                                            __pdataCOMRAM 004A  
                                          ??_readPlateMax 0014  
                                                  tblptrh 000FF7  
                                                  tblptrl 000FF6  
                                                  tblptru 000FF8  
                                 __end_of_TMR2_StartTimer 1A94  
                TMR3_SetInterruptHandler@InterruptHandler 0011  
                TMR2_SetInterruptHandler@InterruptHandler 0011  
                           __size_of_INTERRUPT_Initialize 0004  
                                            ___xxtofl@arg 001B  
                                            ___xxtofl@exp 001A  
                                       _SYSTEM_Initialize 19A6  
                                            ___xxtofl@val 0011  
                                              __accesstop 0060  
                                 __end_of__initialization 1780  
                                   __end_of_TMR2_CallBack 18F4  
                                   __size_of_clearDisplay 0022  
                                        _printTemperature 117C  
                                      ?_SYSTEM_Initialize 0001  
                                           ___rparam_used 000001  
                                              ___fltol@f1 0087  
                                   __end_of_TMR3_CallBack 18C4  
                            __size_of_ADC_StartConversion 0004  
                                          __pcstackCOMRAM 0001  
                           readTemperatureSensor@ADCvalue 0081  
                                            __pidataBANK0 1A9C  
                                     ??_SYSTEM_Initialize 0013  
                                               ?_TMR2_ISR 0001  
                                               ?_TMR3_ISR 0001  
                                           __end_of_setDP 1A9C  
                                            _ambient_temp 00AD  
                                        ?_TMR2_Initialize 0001  
                                 _ADC_GetConversionResult 1A02  
                                    __size_of_readSoilMax 0034  
                                    __size_of_readSoilMin 0034  
                                            _clearDisplay 1966  
                                                 ??_setDP 0001  
                               __end_of_SYSTEM_Initialize 19C0  
                                           _max_soil_temp 00A1  
                                 __end_of_TMR3_WriteTimer 191C  
                                              __pbssBANK0 008F  
                                        ?_TMR3_Initialize 0001  
                                        ?_readInternalMax 0012  
                                              __pnvCOMRAM 0046  
                        __end_of_TMR3_SetInterruptHandler 1A5C  
                                              ??_TMR2_ISR 000F  
                                              ??_TMR3_ISR 0009  
                                       printTemperature@t 000D  
                                                 _ADCRead 191C  
                                 __size_of_ADC_Initialize 0016  
                                        ?_DATAEE_ReadByte 0001  
                                           ?_setStateLEDs 0011  
                                               ?___xxtofl 0011  
                                    __size_of_openDisplay 000A  
                                                 _TBLPTRH 000FF7  
                                                 _TBLPTRL 000FF6  
                                                 _TBLPTRU 000FF8  
                                            _EncoderState 0042  
                                                 _OSCTUNE 000F9B  
   TMR3_DefaultInterruptHandler@switchPreviousStableState 003E  
                                        ?_TMR2_StartTimer 0001  
                                          _setSwitchState 1A70  
                                                 __Hparam 0000  
                                                 __Lparam 0000  
                              ??_TMR2_SetInterruptHandler 0013  
                                    __end_of_readPlateMax 1860  
                                                 ___fladd 0078  
                                                 ___fldiv 0962  
                                                 ___awdiv 1490  
                                                 ___awmod 1604  
                                                 ___flmul 0538  
                                                 ___fltol 128C  
                                           _min_soil_temp 009F  
                               ??_ADC_GetConversionResult 0013  
                                                 __pcinit 1730  
                                       _max_internal_temp 009B  
                                                 __ramtop 0600  
                                                 __ptext0 0EB2  
                                                 __ptext1 1554  
                                                 __ptext2 1A3E  
                                                 __ptext3 105C  
                                                 __ptext4 0CFE  
                                                 __ptext5 0538  
                                                 __ptext6 0962  
                                                 __ptext7 0078  
                                                 __ptext8 19C0  
                                                 __ptext9 191C  
                                          ??_setStateLEDs 0012  
                                         readSoilMax@temp 0012  
                                   _OSCILLATOR_Initialize 1A66  
                                               _T2CONbits 000FCA  
                                         readSoilMin@temp 0012  
                                            readSoilMax@t 0018  
                                              ??___xxtofl 0015  
                                               _T3CONbits 000FB1  
                                            readSoilMin@t 0018  
                                        ___awmod@dividend 0001  
                                ??_PIN_MANAGER_Initialize 0011  
                                        readInternalMax@t 0018  
                              __size_of_SYSTEM_Initialize 001A  
                                  __end_of_setSwitchState 1A7A  
                                    end_of_initialization 1780  
                                        ?_TMR3_WriteTimer 0001  
                                           _internal_temp 00A7  
                                              _plate_temp 00AB  
                                 ??_setDisplayTemperature 0013  
                                           __Lmediumconst 0000  
                            __end_of_ADC_IsConversionDone 1A02  
                                                 postdec1 000FE5  
                                                 postdec2 000FDD  
                                                 postinc0 000FEE  
                                                 postinc2 000FDE  
                                     readInternalMax@temp 0012  
                                _TMR3_SetInterruptHandler 1A52  
              TMR3_DefaultInterruptHandler@encoderA1Count 0095  
                                __end_of_printTemperature 128C  
              TMR3_DefaultInterruptHandler@encoderC1Count 0093  
                                             ___fladd@grs 0020  
                                           ___xxtofl@sign 0019  
                                     _ADC_StartConversion 1A8C  
                                             ___fldiv@grs 006F  
                                             ___fldiv@rem 0068  
                                         ?_setSwitchState 0001  
TMR3_DefaultInterruptHandler@encoderC1PreviousStableState 008F  
                                             ___flmul@grs 002C  
                                        readPlateMax@temp 0012  
                                             _SwitchState 0044  
                                   _readTemperatureSensor 105C  
                                    ?_ADC_StartConversion 0001  
                                 __size_of_printCharacter 00FC  
                                   printTemperature@digit 004A  
                            __end_of_INTERRUPT_Initialize 1A98  
                    __end_of_TMR2_DefaultInterruptHandler 1A88  
                   __size_of_TMR2_DefaultInterruptHandler 0006  
                            _TMR2_DefaultInterruptHandler 1A82  
                                           __pidataCOMRAM 1A88  
                                       __size_of_TMR2_ISR 0008  
                                               _DisplayOn 004C  
                                       __size_of_TMR3_ISR 0014  
                                          _ADC_Initialize 19D8  
                                  ?_OSCILLATOR_Initialize 0001  
                                     start_initialization 1730  
                         __size_of_PIN_MANAGER_Initialize 0036  
                                          _max_plate_temp 009D  
                                   __size_of_readPlateMax 0034  
                                    __end_of_setStateLEDs 1604  
                                     DATAEE_ReadByte@bAdd 0011  
                                   ??_ADC_StartConversion 0011  
                                         setSwitchState@s 0001  
                                  __end_of_ADC_Initialize 19EE  
                                             __pdataBANK0 00AF  
                                        __CFG_LPT1OSC$OFF 000000  
                                                ?_ADCRead 0015  
                         fp__TMR2_DefaultInterruptHandler 0000  
                           ?_TMR2_DefaultInterruptHandler 0001  
                                           ??_readSoilMax 0014  
                                           ??_readSoilMin 0014  
                                               ___fladd@a 0015  
                                               ___fladd@b 0011  
                                               ___fldiv@a 0064  
                                               ___fldiv@b 0060  
                                  __size_of_TMR2_CallBack 0030  
                                               ___flmul@a 0023  
                                               ___flmul@b 001F  
                                             __pbssCOMRAM 003E  
                                           __pcstackBANK0 0060  
                                    _ADC_IsConversionDone 19EE  
                                __size_of_TMR2_Initialize 001E  
                                  __size_of_TMR3_CallBack 0030  
                               setStateLEDs@currentSensor 0011  
                                            _readPlateMax 182C  
                                       __size_of___xxtofl 01B4  
                                     _previousSwitchState 0099  
                                               __pnvBANK0 00A3  
                                  ?_readTemperatureSensor 0075  
                                  _PIN_MANAGER_Initialize 178E  
                                         _previousA1State 0097  
                                       __CFG_CCP2MX$PORTC 000000  
                                __size_of_TMR3_Initialize 0024  
                                         _previousC1State 00AF  
                                               __pintcode 0008  
                                       _ADC_SelectChannel 19C0  
                                                ?___fladd 0011  
                                                ?___fldiv 0060  
                                                ?___awdiv 0001  
                                __size_of_readInternalMax 0034  
                                                ?___awmod 0001  
                                                ?___flmul 001F  
                                                ?___fltol 0087  
                                         ?_ADC_Initialize 0001  
                                      ?_ADC_SelectChannel 0001  
                            ??_INTERRUPT_InterruptManager 000F  
                                           ??_openDisplay 0011  
                                     ??_ADC_SelectChannel 0011  
                            readTemperatureSensor@channel 0075  
                                   ?_ADC_IsConversionDone 0001  
                                     __end_of_readSoilMax 182C  
                                     __end_of_readSoilMin 17F8  
                                          __size_of_setDP 0004  
                                __size_of_DATAEE_ReadByte 0014  
                                    _INTERRUPT_Initialize 1A94  
                          __size_of_setDisplayTemperature 000A  
                                           _TMR2_CallBack 18C4  
                                                _PIE1bits 000F9D  
                                                _PIE2bits 000FA0  
                           __end_of_setDisplayTemperature 1A48  
                                __size_of_TMR2_StartTimer 0004  
                               __end_of_ADC_SelectChannel 19D8  
                     __size_of_INTERRUPT_InterruptManager 006C  
                                                i2u160_40 1542  
                                                i2u160_41 153E  
                                                i2u161_40 1616  
                                                i2u161_41 1612  
                                                i2u162_40 1630  
                                                i2u170_40 1258  
                                                i2u162_41 162C  
                                                i2u170_41 1254  
                                                i2u155_40 14A2  
                                                i2u163_40 164A  
                                                i2u155_41 149E  
                                                i2u163_41 1646  
                                                i2u156_40 14BC  
                                                i2u164_40 1668  
                                                i2u180_40 1902  
                                                i2u156_41 14B8  
                                                i2u164_41 1664  
                                                i2u180_41 18FE  
                                                i2u157_40 14E2  
                                                i2u165_40 167E  
                                                i2u173_40 16D8  
                                                i2u181_40 18A8  
                                                i2u157_41 14DE  
                                                i2u165_41 167A  
                                                i2u173_41 16D4  
                                                i2u181_41 18A4  
                                                i2u158_40 1500  
                                                i2u166_40 16A2  
                                                i2u174_40 16F0  
                                                i2u158_41 14FC  
                                                i2u166_41 169E  
                                                i2u174_41 16EC  
                                                i2u159_40 151C  
                                                i2u167_40 118E  
                                                i2u175_40 1702  
                                                i2u182_48 18AE  
                                                i2u159_41 1518  
                                                i2u167_41 118A  
                                                i2u175_41 16FE  
                                                i2u182_49 18C2  
                                                i2u168_40 11A8  
                                                i2u168_41 11A4  
                                                i2u176_45 1716  
                                                i2u169_40 11F2  
                                                i2u169_41 11EE  
                                                _PIR1bits 000F9E  
                                                i2u178_40 18D8  
                                                i2u178_41 18D4  
                                                i2u291_40 0020  
                                                i2u291_41 001C  
                                                _PIR2bits 000FA1  
                                                i2u179_48 18DE  
                                                i2u292_40 002E  
                                                i2u179_49 18F2  
                                                i2u292_41 002A  
                                                i2u293_40 003C  
                                                i2u293_41 0038  
                                                i2u294_40 0052  
                                                i2u294_41 004E  
                                                i2u295_40 0060  
                                                i2u295_41 005C  
                              ??_TMR3_SetInterruptHandler 0013  
                                           _TMR3_CallBack 1894  
                                          _printCharacter 1394  
                                                _RCONbits 000FD0  
                                        __CFG_WDTPS$32768 000000  
                                                _TMR2_ISR 1A7A  
                                                _TMR3_ISR 1A2A  
                                               _soil_temp 00A9  
                                        __size_of_ADCRead 0026  
                                              _ADCON0bits 000FC2  
                              _readTemperatureSensor$1820 007D  
                                ADC_SelectChannel@channel 0012  
                                        ??_setSwitchState 0003  
                                       ?_printTemperature 0001  
                          ??_TMR2_DefaultInterruptHandler 000F  
                       __size_of_TMR2_SetInterruptHandler 000A  
                               ?_TMR2_SetInterruptHandler 0011  
                                      ??_printTemperature 000D  
                                     __end_of_openDisplay 1A52  
                                             _INTCON2bits 000FF1  
                                               copy_data0 175C  
                                   __size_of_setStateLEDs 00B0  
                                   ?_INTERRUPT_Initialize 0001  
                                       ??_TMR2_Initialize 0013  
                                          ?_TMR2_CallBack 0001  
                                              _EECON1bits 000FA6  
                                  __end_of_printCharacter 1490  
                 TMR3_DefaultInterruptHandler@SwitchCount 0040  
                                          ?_TMR3_CallBack 0001  
                                                __Hrparam 0000  
                                __size_of_TMR3_WriteTimer 0028  
                                                __Lrparam 0000  
                                ?_ADC_GetConversionResult 0011  
                                      __CFG_BOREN$SBORDIS 000000  
                                 ??_OSCILLATOR_Initialize 0011  
                                        __size_of___fladd 04C0  
                                        __size_of___fldiv 039C  
                                        __size_of___awdiv 00C4  
                                        __size_of___awmod 00B0  
                                        __size_of___flmul 042A  
                                        __size_of___fltol 0108  
                                           readPlateMax@t 0018  
                                       ??_TMR3_Initialize 0013  
                                             _readSoilMax 17F8  
                                             _readSoilMin 17C4  
                                       ??_readInternalMax 0014  
                                  ??_ADC_IsConversionDone 0011  
                                            _setStateLEDs 1554  
                                                ___xxtofl 0CFE  
                                           ?_clearDisplay 0001  
                                                __ptext10 1A8C  
                                                __ptext11 19EE  
                                                __ptext20 1A90  
                                                __ptext12 1A02  
                                                __ptext21 19A6  
                                                __ptext13 17C4  
                                                __ptext22 1942  
                                                __ptext14 17F8  
                                                __ptext31 1A2A  
                                                __ptext23 1A52  
                                                __ptext15 182C  
                                                __ptext40 1A98  
                                                __ptext32 18F4  
                                                __ptext24 1988  
                                                __ptext16 1860  
                                                __ptext41 1394  
                                                __ptext33 1894  
                                                __ptext25 1A5C  
                                                __ptext17 1A16  
                                                __ptext42 1966  
                                                __ptext34 16B4  
                                                __ptext26 178E  
                                                __ptext18 1A48  
                                                __ptext43 1604  
                                                __ptext35 1A70  
                                                __ptext27 1A66  
                                                __ptext19 128C  
                                                __ptext44 1490  
                                                __ptext36 1A7A  
                                                __ptext28 1A94  
                                                __ptext45 0000  
                                                __ptext37 18C4  
                                                __ptext29 19D8  
                                                __ptext38 1A82  
                                                __ptext39 117C  
                               readTemperatureSensor@Vout 0079  
TMR3_DefaultInterruptHandler@encoderA1PreviousStableState 0091  
                               readTemperatureSensor@temp 0083  
                                 TMR3_WriteTimer@timerVal 0001  
                                           __size_of_main 01AA  
                                       ??_DATAEE_ReadByte 0011  
                                         ?_printCharacter 0009  
                              __size_of_ADC_SelectChannel 0018  
                                                int$flags 004E  
                                       ??_TMR2_StartTimer 0011  
                      __end_of_INTERRUPT_InterruptManager 0074  
                              _INTERRUPT_InterruptManager 0008  
                    __end_of_TMR3_DefaultInterruptHandler 1730  
                   __size_of_TMR3_DefaultInterruptHandler 007C  
                            _TMR3_DefaultInterruptHandler 16B4  
                                             _openDisplay 1A48  
                                              _INTCONbits 000FF2  
                                          ??_clearDisplay 0001  
                                  ??_INTERRUPT_Initialize 0011  
                                                intlevel2 0000  
                                         ??_TMR2_CallBack 000F  
                                 ??_readTemperatureSensor 003C  
                             __end_of_ADC_StartConversion 1A90  
                                 ?_PIN_MANAGER_Initialize 0001  
                         __end_of_ADC_GetConversionResult 1A16  
                                         ??_TMR3_CallBack 0009  
                                        ??_ADC_Initialize 0011  
                                       ??_TMR3_WriteTimer 0003  
                                             _temperature 0048  
                         fp__TMR3_DefaultInterruptHandler 0000  
                           ?_TMR3_DefaultInterruptHandler 0001  
                                           ___fladd@signs 001D  
                          __end_of_PIN_MANAGER_Initialize 17C4  
                                            ___fladd@aexp 001E  
                                            ___fladd@bexp 001F  
                                       __CFG_FOSC$INTIO67 000000  
                                   _TMR2_InterruptHandler 00A5  
